	.file	"cmos.cpp"
	.code16gcc
	.text
.Ltext0:
/APP
	.code16gcc

/NO_APP
	.globl	_Z9read_cmosPh
	.type	_Z9read_cmosPh, @function
_Z9read_cmosPh:
.LFB18:
	.file 1 "basic_lib/cmos.cpp"
	.loc 1 4 0
	.cfi_startproc
.LVL0:
	pushl	%ebp
	.cfi_def_cfa_offset 8
	.cfi_offset 5, -8
	movl	%esp, %ebp
	.cfi_def_cfa_register 5
	pushl	%ebx
	.cfi_offset 3, -12
	movl	8(%ebp), %ecx
.LVL1:
	.loc 1 4 0
	xorl	%edx, %edx
.LVL2:
.L3:
	.loc 1 7 0 discriminator 3
	cmpl	$128, %edx
	je	.L1
	.loc 1 19 0 discriminator 2
/APP
/  19 "basic_lib/cmos.cpp" 1
	cli
	movb %dl, %al
	out %al, $0x70
	in $0x71, %al	sti
	movb %al, %bl
	
/  0 "" 2
.LVL3:
	.loc 1 20 0 discriminator 2
/NO_APP
	movb	%bl, (%ecx,%edx)
.LVL4:
	incl	%edx
.LVL5:
	.loc 1 7 0 discriminator 2
	jmp	.L3
.LVL6:
.L1:
	.loc 1 22 0
	popl	%ebx
	.cfi_restore 3
	popl	%ebp
	.cfi_restore 5
	.cfi_def_cfa 4, 4
	ret
	.cfi_endproc
.LFE18:
	.size	_Z9read_cmosPh, .-_Z9read_cmosPh
	.globl	_Z27get_update_in_progress_flagv
	.type	_Z27get_update_in_progress_flagv, @function
_Z27get_update_in_progress_flagv:
.LFB19:
	.loc 1 39 0
	.cfi_startproc
	pushl	%ebp
	.cfi_def_cfa_offset 8
	.cfi_offset 5, -8
	movl	%esp, %ebp
	.cfi_def_cfa_register 5
	.loc 1 40 0
	pushl	$10
	pushl	$112
	call	sys_outb
.LVL7:
	.loc 1 41 0
	popl	%eax
	popl	%edx
	pushl	$113
	call	sys_inb
.LVL8:
	andl	$-128, %eax
	movzbl	%al, %eax
	.loc 1 42 0
	leave
	.cfi_restore 5
	.cfi_def_cfa 4, 4
	ret
	.cfi_endproc
.LFE19:
	.size	_Z27get_update_in_progress_flagv, .-_Z27get_update_in_progress_flagv
	.globl	_Z16get_RTC_registeri
	.type	_Z16get_RTC_registeri, @function
_Z16get_RTC_registeri:
.LFB20:
	.loc 1 44 0
	.cfi_startproc
.LVL9:
	pushl	%ebp
	.cfi_def_cfa_offset 8
	.cfi_offset 5, -8
	movl	%esp, %ebp
	.cfi_def_cfa_register 5
	.loc 1 45 0
	movzbl	8(%ebp), %eax
	pushl	%eax
	pushl	$112
	call	sys_outb
.LVL10:
	.loc 1 46 0
	popl	%eax
	popl	%edx
	movl	$113, 8(%ebp)
.LVL11:
	.loc 1 47 0
	leave
	.cfi_restore 5
	.cfi_def_cfa 4, 4
	.loc 1 46 0
	jmp	sys_inb
.LVL12:
	.cfi_endproc
.LFE20:
	.size	_Z16get_RTC_registeri, .-_Z16get_RTC_registeri
	.section	.rodata.str1.1,"aMS",@progbits,1
.LC0:
	.string	"%d:%d:%d\n"
	.text
	.globl	read_rtc
	.type	read_rtc, @function
read_rtc:
.LFB21:
	.loc 1 49 0
	.cfi_startproc
	pushl	%ebp
	.cfi_def_cfa_offset 8
	.cfi_offset 5, -8
	movl	%esp, %ebp
	.cfi_def_cfa_register 5
	pushl	%edi
	pushl	%esi
	pushl	%ebx
	.cfi_offset 7, -12
	.cfi_offset 6, -16
	.cfi_offset 3, -20
	pushl	%ebx
.L11:
	.loc 1 58 0
	call	_Z27get_update_in_progress_flagv
.LVL13:
	testl	%eax, %eax
	jne	.L11
	.loc 1 59 0
	pushl	$0
	call	_Z16get_RTC_registeri
.LVL14:
	movb	%al, sys_internal_second
	.loc 1 60 0
	movl	$2, (%esp)
	call	_Z16get_RTC_registeri
.LVL15:
	movb	%al, sys_internal_minute
	.loc 1 61 0
	movl	$4, (%esp)
	call	_Z16get_RTC_registeri
.LVL16:
	movb	%al, hour
	.loc 1 62 0
	movl	$7, (%esp)
	call	_Z16get_RTC_registeri
.LVL17:
	movb	%al, day
	.loc 1 63 0
	movl	$8, (%esp)
	call	_Z16get_RTC_registeri
.LVL18:
	movb	%al, month
	.loc 1 64 0
	movl	$9, (%esp)
	call	_Z16get_RTC_registeri
.LVL19:
	movzbl	%al, %eax
	movl	%eax, year
	popl	%ecx
.L20:
	.loc 1 67 0
	movb	sys_internal_second, %al
	movl	%eax, %edi
.LVL20:
	.loc 1 68 0
	movb	sys_internal_minute, %al
.LVL21:
	movb	%al, -13(%ebp)
.LVL22:
	.loc 1 69 0
	movb	hour, %bl
.LVL23:
	.loc 1 70 0
	movb	day, %al
.LVL24:
	movb	%al, -14(%ebp)
.LVL25:
	.loc 1 71 0
	movb	month, %al
.LVL26:
	movb	%al, -15(%ebp)
.LVL27:
	.loc 1 72 0
	movl	year, %esi
.LVL28:
.L12:
	.loc 1 74 0
	call	_Z27get_update_in_progress_flagv
.LVL29:
	testl	%eax, %eax
	jne	.L12
	.loc 1 75 0
	pushl	$0
	call	_Z16get_RTC_registeri
.LVL30:
	movb	%al, sys_internal_second
	.loc 1 76 0
	movl	$2, (%esp)
	call	_Z16get_RTC_registeri
.LVL31:
	movb	%al, sys_internal_minute
	.loc 1 77 0
	movl	$4, (%esp)
	call	_Z16get_RTC_registeri
.LVL32:
	movb	%al, hour
	.loc 1 78 0
	movl	$7, (%esp)
	call	_Z16get_RTC_registeri
.LVL33:
	movb	%al, day
	.loc 1 79 0
	movl	$8, (%esp)
	call	_Z16get_RTC_registeri
.LVL34:
	movb	%al, month
	.loc 1 80 0
	movl	$9, (%esp)
	call	_Z16get_RTC_registeri
.LVL35:
	movzbl	%al, %eax
	movl	%eax, year
	.loc 1 82 0
	popl	%edx
	movl	%edi, %ecx
	cmpb	%cl, sys_internal_second
	jne	.L20
.LVL36:
	.loc 1 81 0
	movb	-13(%ebp), %cl
.LVL37:
	cmpb	%cl, sys_internal_minute
	jne	.L20
	.loc 1 81 0 is_stmt 0 discriminator 1
	cmpb	hour, %bl
	jne	.L20
	.loc 1 81 0 discriminator 2
	movb	-14(%ebp), %bl
.LVL38:
	cmpb	day, %bl
	jne	.L20
	.loc 1 82 0 is_stmt 1
	movb	-15(%ebp), %bl
	cmpb	month, %bl
	jne	.L20
	.loc 1 82 0 is_stmt 0 discriminator 1
	movl	%esi, %ecx
	movzbl	%cl, %esi
.LVL39:
	cmpl	%eax, %esi
	jne	.L20
	.loc 1 84 0 is_stmt 1
	pushl	$11
	call	_Z16get_RTC_registeri
.LVL40:
	movl	%eax, %esi
.LVL41:
	.loc 1 86 0
	popl	%eax
.LVL42:
	testl	$4, %esi
	jne	.L14
	.loc 1 87 0
	movb	sys_internal_second, %dl
	movb	%dl, %al
	shrb	$4, %al
	movb	$10, %cl
	mulb	%cl
	andl	$15, %edx
	addl	%edx, %eax
	movb	%al, sys_internal_second
	.loc 1 88 0
	movb	sys_internal_minute, %dl
	movb	%dl, %al
	shrb	$4, %al
	mulb	%cl
	andl	$15, %edx
	addl	%edx, %eax
	movb	%al, sys_internal_minute
	.loc 1 89 0
	movb	hour, %bl
	movb	%bl, %al
	shrb	$4, %al
	andl	$7, %eax
	mulb	%cl
	movb	%bl, %dl
	andl	$15, %edx
	addl	%eax, %edx
	andl	$-128, %ebx
	orl	%ebx, %edx
	movb	%dl, hour
	.loc 1 90 0
	movb	day, %dl
	movb	%dl, %al
	shrb	$4, %al
	mulb	%cl
	andl	$15, %edx
	addl	%edx, %eax
	movb	%al, day
	.loc 1 91 0
	movb	month, %dl
	movb	%dl, %al
	shrb	$4, %al
	mulb	%cl
	andl	$15, %edx
	addl	%edx, %eax
	movb	%al, month
	.loc 1 92 0
	movl	year, %eax
	movl	%eax, %edx
	shrl	$4, %edx
	imull	$10, %edx, %edx
	andl	$15, %eax
	addl	%edx, %eax
	movl	%eax, year
.L14:
	movb	hour, %al
	.loc 1 95 0
	andl	$2, %esi
.LVL43:
	jne	.L15
	.loc 1 95 0 is_stmt 0 discriminator 1
	testb	%al, %al
	jns	.L15
	.loc 1 96 0 is_stmt 1
	andl	$127, %eax
	addl	$12, %eax
	movl	$24, %ecx
	cltd
	idivl	%ecx
	movb	%dl, hour
.L15:
	.loc 1 99 0
	movl	year, %eax
	leal	2000(%eax), %edx
	.loc 1 100 0
	cmpl	$2017, %edx
	jbe	.L16
	.loc 1 99 0
	movl	%edx, year
	jmp	.L17
.L16:
	.loc 1 100 0 discriminator 1
	addl	$2100, %eax
	movl	%eax, year
.L17:
	.loc 1 101 0
	movzbl	sys_internal_second, %eax
	pushl	%eax
	movzbl	sys_internal_minute, %eax
	pushl	%eax
	movzbl	hour, %eax
	pushl	%eax
	pushl	$.LC0
	call	_Z6printfPKcz
.LVL44:
	.loc 1 102 0
	addl	$16, %esp
	leal	-12(%ebp), %esp
	popl	%ebx
	.cfi_restore 3
	popl	%esi
	.cfi_restore 6
	popl	%edi
	.cfi_restore 7
.LVL45:
	popl	%ebp
	.cfi_restore 5
	.cfi_def_cfa 4, 4
.LVL46:
	ret
	.cfi_endproc
.LFE21:
	.size	read_rtc, .-read_rtc
	.globl	year
	.section	.bss
	.align 4
	.type	year, @object
	.size	year, 4
year:
	.zero	4
	.globl	month
	.type	month, @object
	.size	month, 1
month:
	.zero	1
	.globl	day
	.type	day, @object
	.size	day, 1
day:
	.zero	1
	.globl	hour
	.type	hour, @object
	.size	hour, 1
hour:
	.zero	1
	.globl	sys_internal_minute
	.type	sys_internal_minute, @object
	.size	sys_internal_minute, 1
sys_internal_minute:
	.zero	1
	.globl	sys_internal_second
	.type	sys_internal_second, @object
	.size	sys_internal_second, 1
sys_internal_second:
	.zero	1
	.text
.Letext0:
	.file 2 "basic_lib/sys_lib.h"
	.file 3 "basic_lib/../libc/stdio.h"