
build/kernel/kernel.bin.elf:     file format elf32-i386


Disassembly of section .text:

00007e00 <deregister_tm_clones>:
    7e00:	b8 c8 82 00 00       	mov    $0x82c8,%eax
    7e05:	3d c8 82 00 00       	cmp    $0x82c8,%eax
    7e0a:	74 1c                	je     7e28 <deregister_tm_clones+0x28>
    7e0c:	b8 00 00 00 00       	mov    $0x0,%eax
    7e11:	85 c0                	test   %eax,%eax
    7e13:	74 13                	je     7e28 <deregister_tm_clones+0x28>
    7e15:	55                   	push   %ebp
    7e16:	89 e5                	mov    %esp,%ebp
    7e18:	83 ec 14             	sub    $0x14,%esp
    7e1b:	68 c8 82 00 00       	push   $0x82c8
    7e20:	ff d0                	call   *%eax
    7e22:	83 c4 10             	add    $0x10,%esp
    7e25:	c9                   	leave  
    7e26:	c3                   	ret    
    7e27:	90                   	nop
    7e28:	c3                   	ret    
    7e29:	8d 76 00             	lea    0x0(%esi),%esi

00007e2c <register_tm_clones>:
    7e2c:	b8 c8 82 00 00       	mov    $0x82c8,%eax
    7e31:	2d c8 82 00 00       	sub    $0x82c8,%eax
    7e36:	c1 f8 02             	sar    $0x2,%eax
    7e39:	89 c2                	mov    %eax,%edx
    7e3b:	c1 ea 1f             	shr    $0x1f,%edx
    7e3e:	01 d0                	add    %edx,%eax
    7e40:	d1 f8                	sar    %eax
    7e42:	74 1c                	je     7e60 <register_tm_clones+0x34>
    7e44:	ba 00 00 00 00       	mov    $0x0,%edx
    7e49:	85 d2                	test   %edx,%edx
    7e4b:	74 13                	je     7e60 <register_tm_clones+0x34>
    7e4d:	55                   	push   %ebp
    7e4e:	89 e5                	mov    %esp,%ebp
    7e50:	83 ec 10             	sub    $0x10,%esp
    7e53:	50                   	push   %eax
    7e54:	68 c8 82 00 00       	push   $0x82c8
    7e59:	ff d2                	call   *%edx
    7e5b:	83 c4 10             	add    $0x10,%esp
    7e5e:	c9                   	leave  
    7e5f:	c3                   	ret    
    7e60:	c3                   	ret    
    7e61:	8d 76 00             	lea    0x0(%esi),%esi

00007e64 <__do_global_dtors_aux>:
    7e64:	80 3d 80 82 00 00 00 	cmpb   $0x0,0x8280
    7e6b:	75 63                	jne    7ed0 <__do_global_dtors_aux+0x6c>
    7e6d:	55                   	push   %ebp
    7e6e:	89 e5                	mov    %esp,%ebp
    7e70:	56                   	push   %esi
    7e71:	53                   	push   %ebx
    7e72:	bb c4 82 00 00       	mov    $0x82c4,%ebx
    7e77:	81 eb c0 82 00 00    	sub    $0x82c0,%ebx
    7e7d:	c1 fb 02             	sar    $0x2,%ebx
    7e80:	4b                   	dec    %ebx
    7e81:	be c0 82 00 00       	mov    $0x82c0,%esi
    7e86:	a1 84 82 00 00       	mov    0x8284,%eax
    7e8b:	39 d8                	cmp    %ebx,%eax
    7e8d:	73 13                	jae    7ea2 <__do_global_dtors_aux+0x3e>
    7e8f:	90                   	nop
    7e90:	40                   	inc    %eax
    7e91:	a3 84 82 00 00       	mov    %eax,0x8284
    7e96:	ff 14 86             	call   *(%esi,%eax,4)
    7e99:	a1 84 82 00 00       	mov    0x8284,%eax
    7e9e:	39 d8                	cmp    %ebx,%eax
    7ea0:	72 ee                	jb     7e90 <__do_global_dtors_aux+0x2c>
    7ea2:	e8 59 ff ff ff       	call   7e00 <deregister_tm_clones>
    7ea7:	b8 00 00 00 00       	mov    $0x0,%eax
    7eac:	85 c0                	test   %eax,%eax
    7eae:	74 10                	je     7ec0 <__do_global_dtors_aux+0x5c>
    7eb0:	83 ec 0c             	sub    $0xc,%esp
    7eb3:	68 98 81 00 00       	push   $0x8198
    7eb8:	e8 43 81 ff ff       	call   0 <deregister_tm_clones-0x7e00>
    7ebd:	83 c4 10             	add    $0x10,%esp
    7ec0:	c6 05 80 82 00 00 01 	movb   $0x1,0x8280
    7ec7:	8d 65 f8             	lea    -0x8(%ebp),%esp
    7eca:	5b                   	pop    %ebx
    7ecb:	5e                   	pop    %esi
    7ecc:	5d                   	pop    %ebp
    7ecd:	c3                   	ret    
    7ece:	66 90                	xchg   %ax,%ax
    7ed0:	c3                   	ret    
    7ed1:	8d 76 00             	lea    0x0(%esi),%esi

00007ed4 <frame_dummy>:
    7ed4:	b8 00 00 00 00       	mov    $0x0,%eax
    7ed9:	85 c0                	test   %eax,%eax
    7edb:	74 1f                	je     7efc <frame_dummy+0x28>
    7edd:	55                   	push   %ebp
    7ede:	89 e5                	mov    %esp,%ebp
    7ee0:	83 ec 10             	sub    $0x10,%esp
    7ee3:	68 88 82 00 00       	push   $0x8288
    7ee8:	68 98 81 00 00       	push   $0x8198
    7eed:	e8 0e 81 ff ff       	call   0 <deregister_tm_clones-0x7e00>
    7ef2:	83 c4 10             	add    $0x10,%esp
    7ef5:	c9                   	leave  
    7ef6:	e9 31 ff ff ff       	jmp    7e2c <register_tm_clones>
    7efb:	90                   	nop
    7efc:	e9 2b ff ff ff       	jmp    7e2c <register_tm_clones>
    7f01:	66 90                	xchg   %ax,%ax
    7f03:	66 90                	xchg   %ax,%ax
    7f05:	66 90                	xchg   %ax,%ax
    7f07:	66 90                	xchg   %ax,%ax
    7f09:	66 90                	xchg   %ax,%ax
    7f0b:	66 90                	xchg   %ax,%ax
    7f0d:	66 90                	xchg   %ax,%ax
    7f0f:	90                   	nop

00007f10 <kernel_start>:
    7f10:	e8 68 02 00 00       	call   817d <_init>
    7f15:	e8 03 00 00 00       	call   7f1d <kernel_main>
    7f1a:	fa                   	cli    
    7f1b:	eb fe                	jmp    7f1b <kernel_start+0xb>

00007f1d <kernel_main>:
    7f1d:	66 55                	push   %bp
    7f1f:	66 89 e5             	mov    %sp,%bp
    7f22:	66 57                	push   %di
    7f24:	66 56                	push   %si
    7f26:	66 53                	push   %bx
    7f28:	66 83 ec 10          	sub    $0x10,%sp
    7f2c:	66 e8 be 00          	callw  7fee <sys_bios_print_string+0x1e>
    7f30:	00 00                	add    %al,(%eax)
    7f32:	66 68 00 01          	pushw  $0x100
    7f36:	00 00                	add    %al,(%eax)
    7f38:	66 6a 07             	pushw  $0x7
    7f3b:	66 68 ce 07          	pushw  $0x7ce
    7f3f:	00 00                	add    %al,(%eax)
    7f41:	66 e8 c1 00          	callw  8006 <sys_bios_getchar+0x3>
    7f45:	00 00                	add    %al,(%eax)
    7f47:	66 83 c4 0c          	add    $0xc,%sp
    7f4b:	66 68 00 02          	pushw  $0x200
    7f4f:	00 00                	add    %al,(%eax)
    7f51:	66 6a 07             	pushw  $0x7
    7f54:	66 68 6d 1a          	pushw  $0x1a6d
    7f58:	00 00                	add    %al,(%eax)
    7f5a:	66 e8 a8 00          	callw  8006 <sys_bios_getchar+0x3>
    7f5e:	00 00                	add    %al,(%eax)
    7f60:	67 66 8d 7d e7       	lea    -0x19(%di),%di
    7f65:	66 be a8 82          	mov    $0x82a8,%si
    7f69:	00 00                	add    %al,(%eax)
    7f6b:	66 b9 0d 00          	mov    $0xd,%cx
    7f6f:	00 00                	add    %al,(%eax)
    7f71:	f3 a4                	rep movsb %ds:(%esi),%es:(%edi)
    7f73:	66 83 c4 0c          	add    $0xc,%sp
    7f77:	66 6a 00             	pushw  $0x0
    7f7a:	66 6a 0e             	pushw  $0xe
    7f7d:	66 6a 0c             	pushw  $0xc
    7f80:	67 66 8d 45 e7       	lea    -0x19(%di),%ax
    7f85:	66 50                	push   %ax
    7f87:	66 e8 43 00          	callw  7fce <kernel_main+0xb1>
    7f8b:	00 00                	add    %al,(%eax)
    7f8d:	66 83 c4 10          	add    $0x10,%sp
    7f91:	66 bb 00 07          	mov    $0x700,%bx
    7f95:	00 00                	add    %al,(%eax)
    7f97:	66 e8 96 01          	callw  8131 <sys_inb+0xd>
    7f9b:	00 00                	add    %al,(%eax)
    7f9d:	66 89 da             	mov    %bx,%dx
    7fa0:	66 83 ca 05          	or     $0x5,%dx
    7fa4:	66 52                	push   %dx
    7fa6:	66 6a 07             	pushw  $0x7
    7fa9:	66 0f be c0          	movsbw %al,%ax
    7fad:	66 50                	push   %ax
    7faf:	66 e8 53 00          	callw  8006 <sys_bios_getchar+0x3>
    7fb3:	00 00                	add    %al,(%eax)
    7fb5:	66 81 c3 00 01       	add    $0x100,%bx
    7fba:	00 00                	add    %al,(%eax)
    7fbc:	66 83 c4 0c          	add    $0xc,%sp
    7fc0:	eb d5                	jmp    7f97 <kernel_main+0x7a>
    7fc2:	66 90                	xchg   %ax,%ax
    7fc4:	66 90                	xchg   %ax,%ax
    7fc6:	66 90                	xchg   %ax,%ax
    7fc8:	66 90                	xchg   %ax,%ax
    7fca:	66 90                	xchg   %ax,%ax
    7fcc:	66 90                	xchg   %ax,%ax
    7fce:	66 90                	xchg   %ax,%ax

00007fd0 <sys_bios_print_string>:
    7fd0:	55                   	push   %ebp
    7fd1:	89 e5                	mov    %esp,%ebp
    7fd3:	8b 4e 0a             	mov    0xa(%esi),%ecx
    7fd6:	8b 5e 0e             	mov    0xe(%esi),%ebx
    7fd9:	b7 00                	mov    $0x0,%bh
    7fdb:	8b 56 12             	mov    0x12(%esi),%edx
    7fde:	8c d8                	mov    %ds,%eax
    7fe0:	8e c0                	mov    %eax,%es
    7fe2:	b8 01 13 8e ed       	mov    $0xed8e1301,%eax
    7fe7:	8b 6e 06             	mov    0x6(%esi),%ebp
    7fea:	cd 10                	int    $0x10
    7fec:	8c ed                	mov    %gs,%ebp
    7fee:	5d                   	pop    %ebp
    7fef:	c3                   	ret    

00007ff0 <sys_bios_clear_screen>:
    7ff0:	60                   	pusha  
    7ff1:	b4 06                	mov    $0x6,%ah
    7ff3:	b0 00                	mov    $0x0,%al
    7ff5:	b7 07                	mov    $0x7,%bh
    7ff7:	b5 00                	mov    $0x0,%ch
    7ff9:	b1 00                	mov    $0x0,%cl
    7ffb:	b6 18                	mov    $0x18,%dh
    7ffd:	b2 4f                	mov    $0x4f,%dl
    7fff:	cd 10                	int    $0x10
    8001:	61                   	popa   
    8002:	c3                   	ret    

00008003 <sys_bios_getchar>:
    8003:	b4 00                	mov    $0x0,%ah
    8005:	cd 16                	int    $0x16
    8007:	c3                   	ret    

00008008 <sys_bios_print_int>:
    8008:	66 55                	push   %bp
    800a:	66 89 e5             	mov    %sp,%bp
    800d:	66 57                	push   %di
    800f:	66 56                	push   %si
    8011:	66 53                	push   %bx
    8013:	66 50                	push   %ax
    8015:	67 66 8b 45 08       	mov    0x8(%di),%ax
    801a:	66 b9 01 00          	mov    $0x1,%cx
    801e:	00 00                	add    %al,(%eax)
    8020:	66 bb 0a 00          	mov    $0xa,%bx
    8024:	00 00                	add    %al,(%eax)
    8026:	66 99                	cwtd   
    8028:	66 f7 fb             	idiv   %bx
    802b:	67 66 8d 51 01       	lea    0x1(%bx,%di),%dx
    8030:	66 85 c0             	test   %ax,%ax
    8033:	74 05                	je     803a <sys_bios_print_int+0x32>
    8035:	66 89 d1             	mov    %dx,%cx
    8038:	eb ec                	jmp    8026 <sys_bios_print_int+0x1e>
    803a:	67 66 8d 41 04       	lea    0x4(%bx,%di),%ax
    803f:	66 83 e0 fc          	and    $0xfffc,%ax
    8043:	66 29 c4             	sub    %ax,%sp
    8046:	66 89 e7             	mov    %sp,%di
    8049:	67 66 8d 1c          	lea    (%si),%bx
    804d:	0c 67                	or     $0x67,%al
    804f:	66 c7 45 f0 01 00    	movw   $0x1,-0x10(%ebp)
    8055:	00 00                	add    %al,(%eax)
    8057:	67 66 8b 45 08       	mov    0x8(%di),%ax
    805c:	66 99                	cwtd   
    805e:	67 66 f7 7d f0       	idivw  -0x10(%di)
    8063:	66 be 0a 00          	mov    $0xa,%si
    8067:	00 00                	add    %al,(%eax)
    8069:	66 99                	cwtd   
    806b:	66 f7 fe             	idiv   %si
    806e:	66 83 c2 30          	add    $0x30,%dx
    8072:	67 88 53 ff          	mov    %dl,-0x1(%bp,%di)
    8076:	67 66 6b 45 f0 0a    	imul   $0xa,-0x10(%di),%ax
    807c:	67 66 89 45 f0       	mov    %ax,-0x10(%di)
    8081:	66 4b                	dec    %bx
    8083:	66 39 df             	cmp    %bx,%di
    8086:	75 cf                	jne    8057 <sys_bios_print_int+0x4f>
    8088:	67 c6 04 0f          	movb   $0xf,(%si)
    808c:	00 67 66             	add    %ah,0x66(%edi)
    808f:	ff 75 10             	pushl  0x10(%ebp)
    8092:	67 66 ff 75 0c       	pushw  0xc(%di)
    8097:	66 51                	push   %cx
    8099:	66 57                	push   %di
    809b:	66 e8 2f ff          	callw  7fce <kernel_main+0xb1>
    809f:	ff                   	(bad)  
    80a0:	ff 66 83             	jmp    *-0x7d(%esi)
    80a3:	c4 10                	les    (%eax),%edx
    80a5:	67 66 8d 65 f4       	lea    -0xc(%di),%sp
    80aa:	66 5b                	pop    %bx
    80ac:	66 5e                	pop    %si
    80ae:	66 5f                	pop    %di
    80b0:	66 5d                	pop    %bp
    80b2:	66 c3                	retw   

000080b4 <sys_putchar>:
    80b4:	66 55                	push   %bp
    80b6:	66 89 e5             	mov    %sp,%bp
    80b9:	67 66 6b 45 14 50    	imul   $0x50,0x14(%di),%ax
    80bf:	67 66 03 45 10       	add    0x10(%di),%ax
    80c4:	66 01 c0             	add    %ax,%ax
    80c7:	67 66 8b 4d 0c       	mov    0xc(%di),%cx
    80cc:	66 c1 e1 08          	shl    $0x8,%cx
    80d0:	67 0f be 55 08       	movsbl 0x8(%di),%edx
    80d5:	66 09 ca             	or     %cx,%dx
    80d8:	67 89 90 00 80       	mov    %edx,-0x8000(%bx,%si)
    80dd:	0b 00                	or     (%eax),%eax
    80df:	66 5d                	pop    %bp
    80e1:	66 c3                	retw   

000080e3 <sys_bios_putchar>:
    80e3:	66 55                	push   %bp
    80e5:	66 89 e5             	mov    %sp,%bp
    80e8:	66 50                	push   %ax
    80ea:	67 66 8b 45 08       	mov    0x8(%di),%ax
    80ef:	67 88 45 fc          	mov    %al,-0x4(%di)
    80f3:	67 66 8b 45 10       	mov    0x10(%di),%ax
    80f8:	66 c1 e0 08          	shl    $0x8,%ax
    80fc:	67 66 0f b6 55 14    	movzbw 0x14(%di),%dx
    8102:	66 09 d0             	or     %dx,%ax
    8105:	66 50                	push   %ax
    8107:	67 66 ff 75 0c       	pushw  0xc(%di)
    810c:	66 6a 01             	pushw  $0x1
    810f:	67 66 8d 45 fc       	lea    -0x4(%di),%ax
    8114:	66 50                	push   %ax
    8116:	66 e8 b4 fe          	callw  7fce <kernel_main+0xb1>
    811a:	ff                   	(bad)  
    811b:	ff 66 83             	jmp    *-0x7d(%esi)
    811e:	c4 10                	les    (%eax),%edx
    8120:	66 c9                	leavew 
    8122:	66 c3                	retw   

00008124 <sys_inb>:
    8124:	66 55                	push   %bp
    8126:	66 89 e5             	mov    %sp,%bp
    8129:	67 66 8b 55 08       	mov    0x8(%di),%dx
    812e:	ec                   	in     (%dx),%al
    812f:	66 5d                	pop    %bp
    8131:	66 c3                	retw   

00008133 <sys_get_scancode>:
    8133:	66 55                	push   %bp
    8135:	66 89 e5             	mov    %sp,%bp
    8138:	e4 64                	in     $0x64,%al
    813a:	a8 01                	test   $0x1,%al
    813c:	74 fa                	je     8138 <sys_get_scancode+0x5>
    813e:	e4 60                	in     $0x60,%al
    8140:	66 5d                	pop    %bp
    8142:	66 c3                	retw   

00008144 <__do_global_ctors_aux>:
    8144:	a1 b8 82 00 00       	mov    0x82b8,%eax
    8149:	83 f8 ff             	cmp    $0xffffffff,%eax
    814c:	74 1a                	je     8168 <__do_global_ctors_aux+0x24>
    814e:	55                   	push   %ebp
    814f:	89 e5                	mov    %esp,%ebp
    8151:	53                   	push   %ebx
    8152:	52                   	push   %edx
    8153:	bb b8 82 00 00       	mov    $0x82b8,%ebx
    8158:	ff d0                	call   *%eax
    815a:	83 eb 04             	sub    $0x4,%ebx
    815d:	8b 03                	mov    (%ebx),%eax
    815f:	83 f8 ff             	cmp    $0xffffffff,%eax
    8162:	75 f4                	jne    8158 <__do_global_ctors_aux+0x14>
    8164:	58                   	pop    %eax
    8165:	5b                   	pop    %ebx
    8166:	5d                   	pop    %ebp
    8167:	c3                   	ret    
    8168:	c3                   	ret    

Disassembly of section .init:

00008169 <_init-0x14>:
    8169:	48                   	dec    %eax
    816a:	65 72 65             	gs jb  81d2 <__EH_FRAME_BEGIN__+0x3a>
    816d:	20 69 73             	and    %ch,0x73(%ecx)
    8170:	20 69 6e             	and    %ch,0x6e(%ecx)
    8173:	69 74 20 73 65 67 6d 	imul   $0x656d6765,0x73(%eax,%eiz,1),%esi
    817a:	65 
    817b:	6e                   	outsb  %ds:(%esi),(%dx)
    817c:	74                 	je     81d3 <__EH_FRAME_BEGIN__+0x3b>

0000817d <_init>:
    817d:	55                   	push   %ebp
    817e:	89 e5                	mov    %esp,%ebp
    8180:	e8 4f fd ff ff       	call   7ed4 <frame_dummy>
    8185:	e8 ba ff ff ff       	call   8144 <__do_global_ctors_aux>
    818a:	5d                   	pop    %ebp
    818b:	c3                   	ret    

Disassembly of section .fini:

0000818c <_fini>:
    818c:	55                   	push   %ebp
    818d:	89 e5                	mov    %esp,%ebp
    818f:	e8 d0 fc ff ff       	call   7e64 <__do_global_dtors_aux>
    8194:	5d                   	pop    %ebp
    8195:	c3                   	ret    
