
build/kernel/kernel.bin.elf:     file format elf32-i386


Disassembly of section .text:

00007e00 <deregister_tm_clones>:
    7e00:	b8 c8 82 00 00       	mov    $0x82c8,%eax
    7e05:	3d c8 82 00 00       	cmp    $0x82c8,%eax
    7e0a:	74 1c                	je     7e28 <deregister_tm_clones+0x28>
    7e0c:	b8 00 00 00 00       	mov    $0x0,%eax
    7e11:	85 c0                	test   %eax,%eax
    7e13:	74 13                	je     7e28 <deregister_tm_clones+0x28>
    7e15:	55                   	push   %ebp
    7e16:	89 e5                	mov    %esp,%ebp
    7e18:	83 ec 14             	sub    $0x14,%esp
    7e1b:	68 c8 82 00 00       	push   $0x82c8
    7e20:	ff d0                	call   *%eax
    7e22:	83 c4 10             	add    $0x10,%esp
    7e25:	c9                   	leave  
    7e26:	c3                   	ret    
    7e27:	90                   	nop
    7e28:	c3                   	ret    
    7e29:	8d 76 00             	lea    0x0(%esi),%esi

00007e2c <register_tm_clones>:
    7e2c:	b8 c8 82 00 00       	mov    $0x82c8,%eax
    7e31:	2d c8 82 00 00       	sub    $0x82c8,%eax
    7e36:	c1 f8 02             	sar    $0x2,%eax
    7e39:	89 c2                	mov    %eax,%edx
    7e3b:	c1 ea 1f             	shr    $0x1f,%edx
    7e3e:	01 d0                	add    %edx,%eax
    7e40:	d1 f8                	sar    %eax
    7e42:	74 1c                	je     7e60 <register_tm_clones+0x34>
    7e44:	ba 00 00 00 00       	mov    $0x0,%edx
    7e49:	85 d2                	test   %edx,%edx
    7e4b:	74 13                	je     7e60 <register_tm_clones+0x34>
    7e4d:	55                   	push   %ebp
    7e4e:	89 e5                	mov    %esp,%ebp
    7e50:	83 ec 10             	sub    $0x10,%esp
    7e53:	50                   	push   %eax
    7e54:	68 c8 82 00 00       	push   $0x82c8
    7e59:	ff d2                	call   *%edx
    7e5b:	83 c4 10             	add    $0x10,%esp
    7e5e:	c9                   	leave  
    7e5f:	c3                   	ret    
    7e60:	c3                   	ret    
    7e61:	8d 76 00             	lea    0x0(%esi),%esi

00007e64 <__do_global_dtors_aux>:
    7e64:	80 3d 80 82 00 00 00 	cmpb   $0x0,0x8280
    7e6b:	75 63                	jne    7ed0 <__do_global_dtors_aux+0x6c>
    7e6d:	55                   	push   %ebp
    7e6e:	89 e5                	mov    %esp,%ebp
    7e70:	56                   	push   %esi
    7e71:	53                   	push   %ebx
    7e72:	bb c4 82 00 00       	mov    $0x82c4,%ebx
    7e77:	81 eb c0 82 00 00    	sub    $0x82c0,%ebx
    7e7d:	c1 fb 02             	sar    $0x2,%ebx
    7e80:	4b                   	dec    %ebx
    7e81:	be c0 82 00 00       	mov    $0x82c0,%esi
    7e86:	a1 84 82 00 00       	mov    0x8284,%eax
    7e8b:	39 d8                	cmp    %ebx,%eax
    7e8d:	73 13                	jae    7ea2 <__do_global_dtors_aux+0x3e>
    7e8f:	90                   	nop
    7e90:	40                   	inc    %eax
    7e91:	a3 84 82 00 00       	mov    %eax,0x8284
    7e96:	ff 14 86             	call   *(%esi,%eax,4)
    7e99:	a1 84 82 00 00       	mov    0x8284,%eax
    7e9e:	39 d8                	cmp    %ebx,%eax
    7ea0:	72 ee                	jb     7e90 <__do_global_dtors_aux+0x2c>
    7ea2:	e8 59 ff ff ff       	call   7e00 <deregister_tm_clones>
    7ea7:	b8 00 00 00 00       	mov    $0x0,%eax
    7eac:	85 c0                	test   %eax,%eax
    7eae:	74 10                	je     7ec0 <__do_global_dtors_aux+0x5c>
    7eb0:	83 ec 0c             	sub    $0xc,%esp
    7eb3:	68 98 81 00 00       	push   $0x8198
    7eb8:	e8 43 81 ff ff       	call   0 <deregister_tm_clones-0x7e00>
    7ebd:	83 c4 10             	add    $0x10,%esp
    7ec0:	c6 05 80 82 00 00 01 	movb   $0x1,0x8280
    7ec7:	8d 65 f8             	lea    -0x8(%ebp),%esp
    7eca:	5b                   	pop    %ebx
    7ecb:	5e                   	pop    %esi
    7ecc:	5d                   	pop    %ebp
    7ecd:	c3                   	ret    
    7ece:	66 90                	xchg   %ax,%ax
    7ed0:	c3                   	ret    
    7ed1:	8d 76 00             	lea    0x0(%esi),%esi

00007ed4 <frame_dummy>:
    7ed4:	b8 00 00 00 00       	mov    $0x0,%eax
    7ed9:	85 c0                	test   %eax,%eax
    7edb:	74 1f                	je     7efc <frame_dummy+0x28>
    7edd:	55                   	push   %ebp
    7ede:	89 e5                	mov    %esp,%ebp
    7ee0:	83 ec 10             	sub    $0x10,%esp
    7ee3:	68 88 82 00 00       	push   $0x8288
    7ee8:	68 98 81 00 00       	push   $0x8198
    7eed:	e8 0e 81 ff ff       	call   0 <deregister_tm_clones-0x7e00>
    7ef2:	83 c4 10             	add    $0x10,%esp
    7ef5:	c9                   	leave  
    7ef6:	e9 31 ff ff ff       	jmp    7e2c <register_tm_clones>
    7efb:	90                   	nop
    7efc:	e9 2b ff ff ff       	jmp    7e2c <register_tm_clones>
    7f01:	66 90                	xchg   %ax,%ax
    7f03:	66 90                	xchg   %ax,%ax
    7f05:	66 90                	xchg   %ax,%ax
    7f07:	66 90                	xchg   %ax,%ax
    7f09:	66 90                	xchg   %ax,%ax
    7f0b:	66 90                	xchg   %ax,%ax
    7f0d:	66 90                	xchg   %ax,%ax
    7f0f:	90                   	nop

00007f10 <kernel_start>:
    7f10:	e8 68 02 00 00       	call   817d <_init>
    7f15:	e8 03 00 00 00       	call   7f1d <kernel_main>
    7f1a:	fa                   	cli    
    7f1b:	eb fe                	jmp    7f1b <kernel_start+0xb>

00007f1d <kernel_main>:
    7f1d:	66 55                	push   %bp
    7f1f:	66 89 e5             	mov    %sp,%bp
    7f22:	66 57                	push   %di
    7f24:	66 56                	push   %si
    7f26:	66 53                	push   %bx
    7f28:	66 83 ec 10          	sub    $0x10,%sp
    7f2c:	66 e8 be 00          	callw  7fee <sys_bios_print_string+0x1e>
    7f30:	00 00                	add    %al,(%eax)
    7f32:	66 68 00 01          	pushw  $0x100
    7f36:	00 00                	add    %al,(%eax)
    7f38:	66 6a 07             	pushw  $0x7
    7f3b:	66 68 ce 07          	pushw  $0x7ce
    7f3f:	00 00                	add    %al,(%eax)
    7f41:	66 e8 c1 00          	callw  8006 <sys_bios_getchar+0x3>
    7f45:	00 00                	add    %al,(%eax)
    7f47:	66 83 c4 0c          	add    $0xc,%sp
    7f4b:	66 68 00 02          	pushw  $0x200
    7f4f:	00 00                	add    %al,(%eax)
    7f51:	66 6a 07             	pushw  $0x7
    7f54:	66 68 6d 1a          	pushw  $0x1a6d
    7f58:	00 00                	add    %al,(%eax)
    7f5a:	66 e8 a8 00          	callw  8006 <sys_bios_getchar+0x3>
    7f5e:	00 00                	add    %al,(%eax)
    7f60:	67 66 8d 7d e7       	lea    -0x19(%di),%di
    7f65:	66 be a8 82          	mov    $0x82a8,%si
    7f69:	00 00                	add    %al,(%eax)
    7f6b:	66 b9 0d 00          	mov    $0xd,%cx
    7f6f:	00 00                	add    %al,(%eax)
    7f71:	f3 a4                	rep movsb %ds:(%esi),%es:(%edi)
    7f73:	66 83 c4 0c          	add    $0xc,%sp
    7f77:	66 6a 00             	pushw  $0x0
    7f7a:	66 6a 0e             	pushw  $0xe
    7f7d:	66 6a 0c             	pushw  $0xc
    7f80:	67 66 8d 45 e7       	lea    -0x19(%di),%ax
    7f85:	66 50                	push   %ax
    7f87:	66 e8 43 00          	callw  7fce <kernel_main+0xb1>
    7f8b:	00 00                	add    %al,(%eax)
    7f8d:	66 83 c4 10          	add    $0x10,%sp
    7f91:	66 bb 00 07          	mov    $0x700,%bx
    7f95:	00 00                	add    %al,(%eax)
    7f97:	66 e8 96 01          	callw  8131 <sys_inb+0xd>
    7f9b:	00 00                	add    %al,(%eax)
    7f9d:	66 89 da             	mov    %bx,%dx
    7fa0:	66 83 ca 05          	or     $0x5,%dx
    7fa4:	66 52                	push   %dx
    7fa6:	66 6a 07             	pushw  $0x7
    7fa9:	66 0f be c0          	movsbw %al,%ax
    7fad:	66 50                	push   %ax
    7faf:	66 e8 53 00          	callw  8006 <sys_bios_getchar+0x3>
    7fb3:	00 00                	add    %al,(%eax)
    7fb5:	66 81 c3 00 01       	add    $0x100,%bx
    7fba:	00 00                	add    %al,(%eax)
    7fbc:	66 83 c4 0c          	add    $0xc,%sp
    7fc0:	eb d5                	jmp    7f97 <kernel_main+0x7a>
    7fc2:	66 90                	xchg   %ax,%ax
    7fc4:	66 90                	xchg   %ax,%ax
    7fc6:	66 90                	xchg   %ax,%ax
    7fc8:	66 90                	xchg   %ax,%ax
    7fca:	66 90                	xchg   %ax,%ax
    7fcc:	66 90                	xchg   %ax,%ax
    7fce:	66 90                	xchg   %ax,%ax

00007fd0 <sys_bios_print_string>:
    7fd0:	55                   	push   %ebp
    7fd1:	89 e5                	mov    %esp,%ebp
    7fd3:	8b 4e 0a             	mov    0xa(%esi),%ecx
    7fd6:	8b 5e 0e             	mov    0xe(%esi),%ebx
    7fd9:	b7 00                	mov    $0x0,%bh
    7fdb:	8b 56 12             	mov    0x12(%esi),%edx
    7fde:	8c d8                	mov    %ds,%eax
    7fe0:	8e c0                	mov    %eax,%es
    7fe2:	b8 01 13 8e ed       	mov    $0xed8e1301,%eax
    7fe7:	8b 6e 06             	mov    0x6(%esi),%ebp
    7fea:	cd 10                	int    $0x10
    7fec:	8c ed                	mov    %gs,%ebp
    7fee:	5d                   	pop    %ebp
    7fef:	c3                   	ret    

00007ff0 <sys_bios_clear_screen>:
    7ff0:	60                   	pusha  
    7ff1:	b4 06                	mov    $0x6,%ah
    7ff3:	b0 00                	mov    $0x0,%al
    7ff5:	b7 07                	mov    $0x7,%bh
    7ff7:	b5 00                	mov    $0x0,%ch
    7ff9:	b1 00                	mov    $0x0,%cl
    7ffb:	b6 18                	mov    $0x18,%dh
    7ffd:	b2 4f                	mov    $0x4f,%dl
    7fff:	cd 10                	int    $0x10
    8001:	61                   	popa   
    8002:	c3                   	ret    

00008003 <sys_bios_getchar>:
    8003:	b4 00                	mov    $0x0,%ah
    8005:	cd 16                	int    $0x16
    8007:	c3                   	ret    

00008008 <sys_bios_print_int>:
    8008:	66 55                	push   %bp
    800a:	66 89 e5             	mov    %sp,%bp
    800d:	66 57                	push   %di
    800f:	66 56                	push   %si
    8011:	66 53                	push   %bx
    8013:	66 50                	push   %ax
    8015:	67 66 8b 45 08       	mov    0x8(%di),%ax
    801a:	66 b9 01 00          	mov    $0x1,%cx
    801e:	00 00                	add    %al,(%eax)
    8020:	66 bb 0a 00          	mov    $0xa,%bx
    8024:	00 00                	add    %al,(%eax)
    8026:	66 99                	cwtd   
    8028:	66 f7 fb             	idiv   %bx
    802b:	67 66 8d 51 01       	lea    0x1(%bx,%di),%dx
    8030:	66 85 c0             	test   %ax,%ax
    8033:	74 05                	je     803a <sys_bios_print_int+0x32>
    8035:	66 89 d1             	mov    %dx,%cx
    8038:	eb ec                	jmp    8026 <sys_bios_print_int+0x1e>
    803a:	67 66 8d 41 04       	lea    0x4(%bx,%di),%ax
    803f:	66 83 e0 fc          	and    $0xfffc,%ax
    8043:	66 29 c4             	sub    %ax,%sp
    8046:	66 89 e7             	mov    %sp,%di
    8049:	67 66 8d 1c          	lea    (%si),%bx
    804d:	0c 67                	or     $0x67,%al
    804f:	66 c7 45 f0 01 00    	movw   $0x1,-0x10(%ebp)
    8055:	00 00                	add    %al,(%eax)
    8057:	67 66 8b 45 08       	mov    0x8(%di),%ax
    805c:	66 99                	cwtd   
    805e:	67 66 f7 7d f0       	idivw  -0x10(%di)
    8063:	66 be 0a 00          	mov    $0xa,%si
    8067:	00 00                	add    %al,(%eax)
    8069:	66 99                	cwtd   
    806b:	66 f7 fe             	idiv   %si
    806e:	66 83 c2 30          	add    $0x30,%dx
    8072:	67 88 53 ff          	mov    %dl,-0x1(%bp,%di)
    8076:	67 66 6b 45 f0 0a    	imul   $0xa,-0x10(%di),%ax
    807c:	67 66 89 45 f0       	mov    %ax,-0x10(%di)
    8081:	66 4b                	dec    %bx
    8083:	66 39 df             	cmp    %bx,%di
    8086:	75 cf                	jne    8057 <sys_bios_print_int+0x4f>
    8088:	67 c6 04 0f          	movb   $0xf,(%si)
    808c:	00 67 66             	add    %ah,0x66(%edi)
    808f:	ff 75 10             	pushl  0x10(%ebp)
    8092:	67 66 ff 75 0c       	pushw  0xc(%di)
    8097:	66 51                	push   %cx
    8099:	66 57                	push   %di
    809b:	66 e8 2f ff          	callw  7fce <kernel_main+0xb1>
    809f:	ff                   	(bad)  
    80a0:	ff 66 83             	jmp    *-0x7d(%esi)
    80a3:	c4 10                	les    (%eax),%edx
    80a5:	67 66 8d 65 f4       	lea    -0xc(%di),%sp
    80aa:	66 5b                	pop    %bx
    80ac:	66 5e                	pop    %si
    80ae:	66 5f                	pop    %di
    80b0:	66 5d                	pop    %bp
    80b2:	66 c3                	retw   

000080b4 <sys_putchar>:
    80b4:	66 55                	push   %bp
    80b6:	66 89 e5             	mov    %sp,%bp
    80b9:	67 66 6b 45 14 50    	imul   $0x50,0x14(%di),%ax
    80bf:	67 66 03 45 10       	add    0x10(%di),%ax
    80c4:	66 01 c0             	add    %ax,%ax
    80c7:	67 66 8b 4d 0c       	mov    0xc(%di),%cx
    80cc:	66 c1 e1 08          	shl    $0x8,%cx
    80d0:	67 0f be 55 08       	movsbl 0x8(%di),%edx
    80d5:	66 09 ca             	or     %cx,%dx
    80d8:	67 89 90 00 80       	mov    %edx,-0x8000(%bx,%si)
    80dd:	0b 00                	or     (%eax),%eax
    80df:	66 5d                	pop    %bp
    80e1:	66 c3                	retw   

000080e3 <sys_bios_putchar>:
    80e3:	66 55                	push   %bp
    80e5:	66 89 e5             	mov    %sp,%bp
    80e8:	66 50                	push   %ax
    80ea:	67 66 8b 45 08       	mov    0x8(%di),%ax
    80ef:	67 88 45 fc          	mov    %al,-0x4(%di)
    80f3:	67 66 8b 45 10       	mov    0x10(%di),%ax
    80f8:	66 c1 e0 08          	shl    $0x8,%ax
    80fc:	67 66 0f b6 55 14    	movzbw 0x14(%di),%dx
    8102:	66 09 d0             	or     %dx,%ax
    8105:	66 50                	push   %ax
    8107:	67 66 ff 75 0c       	pushw  0xc(%di)
    810c:	66 6a 01             	pushw  $0x1
    810f:	67 66 8d 45 fc       	lea    -0x4(%di),%ax
    8114:	66 50                	push   %ax
    8116:	66 e8 b4 fe          	callw  7fce <kernel_main+0xb1>
    811a:	ff                   	(bad)  
    811b:	ff 66 83             	jmp    *-0x7d(%esi)
    811e:	c4 10                	les    (%eax),%edx
    8120:	66 c9                	leavew 
    8122:	66 c3                	retw   

00008124 <sys_inb>:
    8124:	66 55                	push   %bp
    8126:	66 89 e5             	mov    %sp,%bp
    8129:	67 66 8b 55 08       	mov    0x8(%di),%dx
    812e:	ec                   	in     (%dx),%al
    812f:	66 5d                	pop    %bp
    8131:	66 c3                	retw   

00008133 <sys_get_scancode>:
    8133:	66 55                	push   %bp
    8135:	66 89 e5             	mov    %sp,%bp
    8138:	e4 64                	in     $0x64,%al
    813a:	a8 01                	test   $0x1,%al
    813c:	74 fa                	je     8138 <sys_get_scancode+0x5>
    813e:	e4 60                	in     $0x60,%al
    8140:	66 5d                	pop    %bp
    8142:	66 c3                	retw   

00008144 <__do_global_ctors_aux>:
    8144:	a1 b8 82 00 00       	mov    0x82b8,%eax
    8149:	83 f8 ff             	cmp    $0xffffffff,%eax
    814c:	74 1a                	je     8168 <__do_global_ctors_aux+0x24>
    814e:	55                   	push   %ebp
    814f:	89 e5                	mov    %esp,%ebp
    8151:	53                   	push   %ebx
    8152:	52                   	push   %edx
    8153:	bb b8 82 00 00       	mov    $0x82b8,%ebx
    8158:	ff d0                	call   *%eax
    815a:	83 eb 04             	sub    $0x4,%ebx
    815d:	8b 03                	mov    (%ebx),%eax
    815f:	83 f8 ff             	cmp    $0xffffffff,%eax
    8162:	75 f4                	jne    8158 <__do_global_ctors_aux+0x14>
    8164:	58                   	pop    %eax
    8165:	5b                   	pop    %ebx
    8166:	5d                   	pop    %ebp
    8167:	c3                   	ret    
    8168:	c3                   	ret    

Disassembly of section .init:

00008169 <_init-0x14>:
    8169:	48                   	dec    %eax
    816a:	65 72 65             	gs jb  81d2 <__EH_FRAME_BEGIN__+0x3a>
    816d:	20 69 73             	and    %ch,0x73(%ecx)
    8170:	20 69 6e             	and    %ch,0x6e(%ecx)
    8173:	69 74 20 73 65 67 6d 	imul   $0x656d6765,0x73(%eax,%eiz,1),%esi
    817a:	65 
    817b:	6e                   	outsb  %ds:(%esi),(%dx)
    817c:	74                 	je     81d3 <__EH_FRAME_BEGIN__+0x3b>

0000817d <_init>:
    817d:	55                   	push   %ebp
    817e:	89 e5                	mov    %esp,%ebp
    8180:	e8 4f fd ff ff       	call   7ed4 <frame_dummy>
    8185:	e8 ba ff ff ff       	call   8144 <__do_global_ctors_aux>
    818a:	5d                   	pop    %ebp
    818b:	c3                   	ret    

Disassembly of section .fini:

0000818c <_fini>:
    818c:	55                   	push   %ebp
    818d:	89 e5                	mov    %esp,%ebp
    818f:	e8 d0 fc ff ff       	call   7e64 <__do_global_dtors_aux>
    8194:	5d                   	pop    %ebp
    8195:	c3                   	ret    

Disassembly of section .eh_frame:

00008198 <__EH_FRAME_BEGIN__>:
    8198:	14 00                	adc    $0x0,%al
    819a:	00 00                	add    %al,(%eax)
    819c:	00 00                	add    %al,(%eax)
    819e:	00 00                	add    %al,(%eax)
    81a0:	01 7a 52             	add    %edi,0x52(%edx)
    81a3:	00 01                	add    %al,(%ecx)
    81a5:	7c 08                	jl     81af <__EH_FRAME_BEGIN__+0x17>
    81a7:	01 1b                	add    %ebx,(%ebx)
    81a9:	0c 04                	or     $0x4,%al
    81ab:	04 88                	add    $0x88,%al
    81ad:	01 00                	add    %eax,(%eax)
    81af:	00 1c 00             	add    %bl,(%eax,%eax,1)
    81b2:	00 00                	add    %al,(%eax)
    81b4:	1c 00                	sbb    $0x0,%al
    81b6:	00 00                	add    %al,(%eax)
    81b8:	65 fd                	gs std 
    81ba:	ff                   	(bad)  
    81bb:	ff a5 00 00 00 00    	jmp    *0x0(%ebp)
    81c1:	42                   	inc    %edx
    81c2:	0e                   	push   %cs
    81c3:	08 85 02 43 0d 05    	or     %al,0x50d4302(%ebp)
    81c9:	4a                   	dec    %edx
    81ca:	87 03                	xchg   %eax,(%ebx)
    81cc:	86 04 83             	xchg   %al,(%ebx,%eax,4)
    81cf:	05 28 00 00 00       	add    $0x28,%eax
    81d4:	3c 00                	cmp    $0x0,%al
    81d6:	00 00                	add    %al,(%eax)
    81d8:	30 fe                	xor    %bh,%dh
    81da:	ff                   	(bad)  
    81db:	ff ac 00 00 00 00 42 	ljmp   *0x42000000(%eax,%eax,1)
    81e2:	0e                   	push   %cs
    81e3:	08 85 02 43 0d 05    	or     %al,0x50d4302(%ebp)
    81e9:	48                   	dec    %eax
    81ea:	87 03                	xchg   %eax,(%ebx)
    81ec:	86 04 83             	xchg   %al,(%ebx,%eax,4)
    81ef:	05 02 97 c3 42       	add    $0x42c39702,%eax
    81f4:	c6 42 c7 42          	movb   $0x42,-0x39(%edx)
    81f8:	c5 0c 04             	lds    (%esp,%eax,1),%ecx
    81fb:	04 1c                	add    $0x1c,%al
    81fd:	00 00                	add    %al,(%eax)
    81ff:	00 68 00             	add    %ch,0x0(%eax)
    8202:	00 00                	add    %al,(%eax)
    8204:	b0 fe                	mov    $0xfe,%al
    8206:	ff                   	(bad)  
    8207:	ff 2f                	ljmp   *(%edi)
    8209:	00 00                	add    %al,(%eax)
    820b:	00 00                	add    %al,(%eax)
    820d:	42                   	inc    %edx
    820e:	0e                   	push   %cs
    820f:	08 85 02 43 0d 05    	or     %al,0x50d4302(%ebp)
    8215:	68 c5 0c 04 04       	push   $0x4040cc5
    821a:	00 00                	add    %al,(%eax)
    821c:	1c 00                	sbb    $0x0,%al
    821e:	00 00                	add    %al,(%eax)
    8220:	88 00                	mov    %al,(%eax)
    8222:	00 00                	add    %al,(%eax)
    8224:	bf fe ff ff 41       	mov    $0x41fffffe,%edi
    8229:	00 00                	add    %al,(%eax)
    822b:	00 00                	add    %al,(%eax)
    822d:	42                   	inc    %edx
    822e:	0e                   	push   %cs
    822f:	08 85 02 43 0d 05    	or     %al,0x50d4302(%ebp)
    8235:	7a c5                	jp     81fc <__EH_FRAME_BEGIN__+0x64>
    8237:	0c 04                	or     $0x4,%al
    8239:	04 00                	add    $0x0,%al
    823b:	00 1c 00             	add    %bl,(%eax,%eax,1)
    823e:	00 00                	add    %al,(%eax)
    8240:	a8 00                	test   $0x0,%al
    8242:	00 00                	add    %al,(%eax)
    8244:	e0 fe                	loopne 8244 <__EH_FRAME_BEGIN__+0xac>
    8246:	ff                   	(bad)  
    8247:	ff 0f                	decl   (%edi)
    8249:	00 00                	add    %al,(%eax)
    824b:	00 00                	add    %al,(%eax)
    824d:	42                   	inc    %edx
    824e:	0e                   	push   %cs
    824f:	08 85 02 43 0d 05    	or     %al,0x50d4302(%ebp)
    8255:	48                   	dec    %eax
    8256:	c5 0c 04             	lds    (%esp,%eax,1),%ecx
    8259:	04 00                	add    $0x0,%al
    825b:	00 1c 00             	add    %bl,(%eax,%eax,1)
    825e:	00 00                	add    %al,(%eax)
    8260:	c8 00 00 00          	enter  $0x0,$0x0
    8264:	cf                   	iret   
    8265:	fe                   	(bad)  
    8266:	ff                   	(bad)  
    8267:	ff 11                	call   *(%ecx)
    8269:	00 00                	add    %al,(%eax)
    826b:	00 00                	add    %al,(%eax)
    826d:	42                   	inc    %edx
    826e:	0e                   	push   %cs
    826f:	08 85 02 43 0d 05    	or     %al,0x50d4302(%ebp)
    8275:	4a                   	dec    %edx
    8276:	c5 0c 04             	lds    (%esp,%eax,1),%ecx
    8279:	04 00                	add    $0x0,%al
	...

0000827c <__FRAME_END__>:
    827c:	00 00                	add    %al,(%eax)
	...

Disassembly of section .data:

00008280 <_data>:
    8280:	00 00                	add    %al,(%eax)
	...

00008284 <dtor_idx.3863>:
    8284:	00 00                	add    %al,(%eax)
	...

00008288 <object.3873>:
	...

000082a0 <__dso_handle>:
    82a0:	00 00                	add    %al,(%eax)
	...

000082a4 <arr>:
    82a4:	a8 82                	test   $0x82,%al
    82a6:	00 00                	add    %al,(%eax)
    82a8:	48                   	dec    %eax
    82a9:	65 6c                	gs insb (%dx),%es:(%edi)
    82ab:	6c                   	insb   (%dx),%es:(%edi)
    82ac:	6f                   	outsl  %ds:(%esi),(%dx)
    82ad:	2c 20                	sub    $0x20,%al
    82af:	77 6f                	ja     8320 <__TMC_END__+0x58>
    82b1:	72 6c                	jb     831f <__TMC_END__+0x57>
    82b3:	64                   	fs
	...

Disassembly of section .ctors:

000082b8 <_GLOBAL_OFFSET_TABLE_>:
    82b8:	ff                   	(bad)  
    82b9:	ff                   	(bad)  
    82ba:	ff                   	(bad)  
    82bb:	ff                 	incl   (%eax)

000082bc <__CTOR_END__>:
    82bc:	00 00                	add    %al,(%eax)
	...

Disassembly of section .dtors:

000082c0 <__DTOR_LIST__>:
    82c0:	ff                   	(bad)  
    82c1:	ff                   	(bad)  
    82c2:	ff                   	(bad)  
    82c3:	ff                 	incl   (%eax)

000082c4 <__DTOR_END__>:
    82c4:	00 00                	add    %al,(%eax)
	...

Disassembly of section .debug_info:

00000000 <.debug_info>:
   0:	e6 01                	out    %al,$0x1
   2:	00 00                	add    %al,(%eax)
   4:	04 00                	add    $0x0,%al
   6:	00 00                	add    %al,(%eax)
   8:	00 00                	add    %al,(%eax)
   a:	04 01                	add    $0x1,%al
   c:	b1 00                	mov    $0x0,%cl
   e:	00 00                	add    %al,(%eax)
  10:	04 ff                	add    $0xff,%al
  12:	01 00                	add    %eax,(%eax)
  14:	00 57 02             	add    %dl,0x2(%edi)
  17:	00 00                	add    %al,(%eax)
  19:	1d 7f 00 00 a5       	sbb    $0xa500007f,%eax
  1e:	00 00                	add    %al,(%eax)
  20:	00 00                	add    %al,(%eax)
  22:	00 00                	add    %al,(%eax)
  24:	00 02                	add    %al,(%edx)
  26:	04 05                	add    $0x5,%al
  28:	ee                   	out    %al,(%dx)
  29:	01 00                	add    %eax,(%eax)
  2b:	00 02                	add    %al,(%edx)
  2d:	04 07                	add    $0x7,%al
  2f:	90                   	nop
  30:	01 00                	add    %eax,(%eax)
  32:	00 02                	add    %al,(%edx)
  34:	08 05 e9 01 00 00    	or     %al,0x1e9
  3a:	02 0c 04             	add    (%esp,%eax,1),%cl
  3d:	3f                   	aas    
  3e:	02 00                	add    (%eax),%al
  40:	00 02                	add    %al,(%edx)
  42:	10 04 80             	adc    %al,(%eax,%eax,4)
  45:	01 00                	add    %eax,(%eax)
  47:	00 03                	add    %al,(%ebx)
  49:	40                   	inc    %eax
  4a:	00 00                	add    %al,(%eax)
  4c:	00 02                	add    %al,(%edx)
  4e:	01 06                	add    %eax,(%esi)
  50:	81 00 00 00 02 02    	addl   $0x2020000,(%eax)
  56:	05 35 02 00 00       	add    $0x235,%eax
  5b:	02 01                	add    (%ecx),%al
  5d:	08 7f 00             	or     %bh,0x0(%edi)
  60:	00 00                	add    %al,(%eax)
  62:	02 02                	add    (%edx),%al
  64:	07                   	pop    %es
  65:	2d 00 00 00 02       	sub    $0x2000000,%eax
  6a:	08 07                	or     %al,(%edi)
  6c:	8b 01                	mov    (%ecx),%eax
  6e:	00 00                	add    %al,(%eax)
  70:	04 04                	add    $0x4,%al
  72:	05 69 6e 74 00       	add    $0x746e69,%eax
  77:	02 04 07             	add    (%edi,%eax,1),%al
  7a:	95                   	xchg   %eax,%ebp
  7b:	01 00                	add    %eax,(%eax)
  7d:	00 02                	add    %al,(%edx)
  7f:	01 06                	add    %eax,(%esi)
  81:	88 00                	mov    %al,(%eax)
  83:	00 00                	add    %al,(%eax)
  85:	05 7e 00 00 00       	add    $0x7e,%eax
  8a:	06                   	push   %es
  8b:	62 00                	bound  %eax,(%eax)
  8d:	00 00                	add    %al,(%eax)
  8f:	07                   	pop    %es
  90:	04 77                	add    $0x77,%al
  92:	00 00                	add    %al,(%eax)
  94:	00 03                	add    %al,(%ebx)
  96:	13 fc                	adc    %esp,%edi
  98:	00 00                	add    %al,(%eax)
  9a:	00 07                	add    %al,(%edi)
  9c:	76 01                	jbe    9f <deregister_tm_clones-0x7d61>
  9e:	00 00                	add    %al,(%eax)
  a0:	00 07                	add    %al,(%edi)
  a2:	0b 00                	or     (%eax),%eax
  a4:	00 00                	add    %al,(%eax)
  a6:	01 07                	add    %eax,(%edi)
  a8:	19 00                	sbb    %eax,(%eax)
  aa:	00 00                	add    %al,(%eax)
  ac:	02 07                	add    (%edi),%al
  ae:	6c                   	insb   (%dx),%es:(%edi)
  af:	00 00                	add    %al,(%eax)
  b1:	00 03                	add    %al,(%ebx)
  b3:	07                   	pop    %es
  b4:	f7 01 00 00 04 07    	testl  $0x7040000,(%ecx)
  ba:	6a 01                	push   $0x1
  bc:	00 00                	add    %al,(%eax)
  be:	05 07 75 00 00       	add    $0x7507,%eax
  c3:	00 06                	add    %al,(%esi)
  c5:	07                   	pop    %es
  c6:	23 00                	and    (%eax),%eax
  c8:	00 00                	add    %al,(%eax)
  ca:	07                   	pop    %es
  cb:	07                   	pop    %es
  cc:	16                   	push   %ss
  cd:	02 00                	add    (%eax),%al
  cf:	00 08                	add    %cl,(%eax)
  d1:	07                   	pop    %es
  d2:	ab                   	stos   %eax,%es:(%edi)
  d3:	02 00                	add    (%eax),%al
  d5:	00 09                	add    %cl,(%ecx)
  d7:	07                   	pop    %es
  d8:	b1 01                	mov    $0x1,%cl
  da:	00 00                	add    %al,(%eax)
  dc:	0a 07                	or     (%edi),%al
  de:	52                   	push   %edx
  df:	00 00                	add    %al,(%eax)
  e1:	00 0b                	add    %cl,(%ebx)
  e3:	07                   	pop    %es
  e4:	a2 01 00 00 0c       	mov    %al,0xc000001
  e9:	07                   	pop    %es
  ea:	8d 00                	lea    (%eax),%eax
  ec:	00 00                	add    %al,(%eax)
  ee:	0d 07 00 00 00       	or     $0x7,%eax
  f3:	00 0e                	add    %cl,(%esi)
  f5:	07                   	pop    %es
  f6:	c2 01 00             	ret    $0x1
  f9:	00 0f                	add    %cl,(%edi)
  fb:	00 08                	add    %cl,(%eax)
  fd:	61                   	popa   
  fe:	72 72                	jb     172 <deregister_tm_clones-0x7c8e>
 100:	00 01                	add    %al,(%ecx)
 102:	0c 0d                	or     $0xd,%al
 104:	01 00                	add    %eax,(%eax)
 106:	00 05 03 a4 82 00    	add    %al,0x82a403
 10c:	00 09                	add    %cl,(%ecx)
 10e:	04 85                	add    $0x85,%al
 110:	00 00                	add    %al,(%eax)
 112:	00 0a                	add    %cl,(%edx)
 114:	4b                   	dec    %ebx
 115:	02 00                	add    (%eax),%al
 117:	00 01                	add    %al,(%ecx)
 119:	0e                   	push   %cs
 11a:	1d 7f 00 00 a5       	sbb    $0xa500007f,%eax
 11f:	00 00                	add    %al,(%eax)
 121:	00 01                	add    %al,(%ecx)
 123:	9c                   	pushf  
 124:	ad                   	lods   %ds:(%esi),%eax
 125:	01 00                	add    %eax,(%eax)
 127:	00 0b                	add    %cl,(%ebx)
 129:	14 00                	adc    $0x0,%al
 12b:	00 00                	add    %al,(%eax)
 12d:	01 11                	add    %edx,(%ecx)
 12f:	70 00                	jo     131 <deregister_tm_clones-0x7ccf>
 131:	00 00                	add    %al,(%eax)
 133:	ce                   	into   
 134:	07                   	pop    %es
 135:	0c 66                	or     $0x66,%al
 137:	69 62 00 01 13 70 00 	imul   $0x701301,0x0(%edx),%esp
 13e:	00 00                	add    %al,(%eax)
 140:	6d                   	insl   (%dx),%es:(%edi)
 141:	1a 0d 61 72 72 00    	sbb    0x727261,%cl
 147:	01 15 ad 01 00 00    	add    %edx,0x1ad
 14d:	02 91 5f 0e 69 00    	add    0x690e5f(%ecx),%dl
 153:	01 17                	add    %edx,(%edi)
 155:	70 00                	jo     157 <deregister_tm_clones-0x7ca9>
 157:	00 00                	add    %al,(%eax)
 159:	0f 97 7f 00          	seta   0x0(%edi)
 15d:	00 2b                	add    %ch,(%ebx)
 15f:	00 00                	add    %al,(%eax)
 161:	00 88 01 00 00 10    	add    %cl,0x10000001(%eax)
 167:	6e                   	outsb  %ds:(%esi),(%dx)
 168:	75 6d                	jne    1d7 <deregister_tm_clones-0x7c29>
 16a:	00 01                	add    %al,(%ecx)
 16c:	19 70 00             	sbb    %esi,0x0(%eax)
 16f:	00 00                	add    %al,(%eax)
 171:	00 00                	add    %al,(%eax)
 173:	00 00                	add    %al,(%eax)
 175:	11 9d 7f 00 00 bd    	adc    %ebx,-0x42ffff81(%ebp)
 17b:	01 00                	add    %eax,(%eax)
 17d:	00 11                	add    %dl,(%ecx)
 17f:	b5 7f                	mov    $0x7f,%ch
 181:	00 00                	add    %al,(%eax)
 183:	c8 01 00 00          	enter  $0x1,$0x0
 187:	00 11                	add    %dl,(%ecx)
 189:	32 7f 00             	xor    0x0(%edi),%bh
 18c:	00 d3                	add    %dl,%bl
 18e:	01 00                	add    %eax,(%eax)
 190:	00 11                	add    %dl,(%ecx)
 192:	47                   	inc    %edi
 193:	7f 00                	jg     195 <deregister_tm_clones-0x7c6b>
 195:	00 c8                	add    %cl,%al
 197:	01 00                	add    %eax,(%eax)
 199:	00 11                	add    %dl,(%ecx)
 19b:	60                   	pusha  
 19c:	7f 00                	jg     19e <deregister_tm_clones-0x7c62>
 19e:	00 c8                	add    %cl,%al
 1a0:	01 00                	add    %eax,(%eax)
 1a2:	00 11                	add    %dl,(%ecx)
 1a4:	8d 7f 00             	lea    0x0(%edi),%edi
 1a7:	00 de                	add    %bl,%dh
 1a9:	01 00                	add    %eax,(%eax)
 1ab:	00 00                	add    %al,(%eax)
 1ad:	12 7e 00             	adc    0x0(%esi),%bh
 1b0:	00 00                	add    %al,(%eax)
 1b2:	bd 01 00 00 13       	mov    $0x13000001,%ebp
 1b7:	2c 00                	sub    $0x0,%al
 1b9:	00 00                	add    %al,(%eax)
 1bb:	0c 00                	or     $0x0,%al
 1bd:	14 a0                	adc    $0xa0,%al
 1bf:	00 00                	add    %al,(%eax)
 1c1:	00 a0 00 00 00 02    	add    %ah,0x2000000(%eax)
 1c7:	0f 14 57 01          	unpcklps 0x1(%edi),%xmm2
 1cb:	00 00                	add    %al,(%eax)
 1cd:	57                   	push   %edi
 1ce:	01 00                	add    %eax,(%eax)
 1d0:	00 02                	add    %al,(%edx)
 1d2:	08 14 d3             	or     %dl,(%ebx,%edx,8)
 1d5:	01 00                	add    %eax,(%eax)
 1d7:	00 d3                	add    %dl,%bl
 1d9:	01 00                	add    %eax,(%eax)
 1db:	00 02                	add    %al,(%edx)
 1dd:	09 14 1f             	or     %edx,(%edi,%ebx,1)
 1e0:	02 00                	add    (%eax),%al
 1e2:	00 1f                	add    %bl,(%edi)
 1e4:	02 00                	add    (%eax),%al
 1e6:	00 02                	add    %al,(%edx)
 1e8:	07                   	pop    %es
 1e9:	00 bf 02 00 00 04    	add    %bh,0x4000002(%edi)
 1ef:	00 08                	add    %cl,(%eax)
 1f1:	01 00                	add    %eax,(%eax)
 1f3:	00 04 01             	add    %al,(%ecx,%eax,1)
 1f6:	f4                   	hlt    
 1f7:	02 00                	add    (%eax),%al
 1f9:	00 0c d1             	add    %cl,(%ecx,%edx,8)
 1fc:	02 00                	add    (%eax),%al
 1fe:	00 57 02             	add    %dl,0x2(%edi)
 201:	00 00                	add    %al,(%eax)
 203:	08 80 00 00 3c 01    	or     %al,0x13c0000(%eax)
 209:	00 00                	add    %al,(%eax)
 20b:	81 00 00 00 02 04    	addl   $0x4020000,(%eax)
 211:	05 ee 01 00 00       	add    $0x1ee,%eax
 216:	02 04 07             	add    (%edi,%eax,1),%al
 219:	90                   	nop
 21a:	01 00                	add    %eax,(%eax)
 21c:	00 03                	add    %al,(%ebx)
 21e:	04 05                	add    $0x5,%al
 220:	69 6e 74 00 02 08 05 	imul   $0x5080200,0x74(%esi),%ebp
 227:	e9 01 00 00 02       	jmp    200022d <__TMC_END__+0x1ff7f65>
 22c:	0c 04                	or     $0x4,%al
 22e:	3f                   	aas    
 22f:	02 00                	add    (%eax),%al
 231:	00 02                	add    %al,(%edx)
 233:	10 04 bb             	adc    %al,(%ebx,%edi,4)
 236:	02 00                	add    (%eax),%al
 238:	00 02                	add    %al,(%edx)
 23a:	01 06                	add    %eax,(%esi)
 23c:	81 00 00 00 02 02    	addl   $0x2020000,(%eax)
 242:	05 35 02 00 00       	add    $0x235,%eax
 247:	04 9e                	add    $0x9e,%al
 249:	03 00                	add    (%eax),%eax
 24b:	00 02                	add    %al,(%edx)
 24d:	2e 68 00 00 00 02    	cs push $0x2000000
 253:	01 08                	add    %ecx,(%eax)
 255:	7f 00                	jg     257 <deregister_tm_clones-0x7ba9>
 257:	00 00                	add    %al,(%eax)
 259:	04 b0                	add    $0xb0,%al
 25b:	03 00                	add    (%eax),%eax
 25d:	00 02                	add    %al,(%edx)
 25f:	31 7f 00             	xor    %edi,0x0(%edi)
 262:	00 00                	add    %al,(%eax)
 264:	05 6f 00 00 00       	add    $0x6f,%eax
 269:	02 02                	add    (%edx),%al
 26b:	07                   	pop    %es
 26c:	2d 00 00 00 02       	sub    $0x2000000,%eax
 271:	08 07                	or     %al,(%edi)
 273:	8b 01                	mov    (%ecx),%eax
 275:	00 00                	add    %al,(%eax)
 277:	02 04 07             	add    (%edi,%eax,1),%al
 27a:	95                   	xchg   %eax,%ebp
 27b:	01 00                	add    %eax,(%eax)
 27d:	00 02                	add    %al,(%edx)
 27f:	01 06                	add    %eax,(%esi)
 281:	88 00                	mov    %al,(%eax)
 283:	00 00                	add    %al,(%eax)
 285:	06                   	push   %es
 286:	a0 00 00 00 01       	mov    0x1000000,%al
 28b:	2d 94 00 00 00       	sub    $0x94,%eax
 290:	33 81 00 00 11 00    	xor    0x110000(%ecx),%eax
 296:	00 00                	add    %al,(%eax)
 298:	01 9c 09 01 00 00 07 	add    %ebx,0x7000001(%ecx,%ecx,1)
 29f:	09 01                	or     %eax,(%ecx)
 2a1:	00 00                	add    %al,(%eax)
 2a3:	38 81 00 00 02 00    	cmp    %al,0x20000(%ecx)
 2a9:	00 00                	add    %al,(%eax)
 2ab:	01 2f                	add    %ebp,(%edi)
 2ad:	e0 00                	loopne 2af <deregister_tm_clones-0x7b51>
 2af:	00 00                	add    %al,(%eax)
 2b1:	08 19                	or     %bl,(%ecx)
 2b3:	01 00                	add    %eax,(%eax)
 2b5:	00 24 00             	add    %ah,(%eax,%eax,1)
 2b8:	00 00                	add    %al,(%eax)
 2ba:	09 38                	or     %edi,(%eax)
 2bc:	81 00 00 02 00 00    	addl   $0x200,(%eax)
 2c2:	00 0a                	add    %cl,(%edx)
 2c4:	af                   	scas   %es:(%edi),%eax
 2c5:	02 00                	add    (%eax),%al
 2c7:	00 00                	add    %al,(%eax)
 2c9:	00 0b                	add    %cl,(%ebx)
 2cb:	09 01                	or     %eax,(%ecx)
 2cd:	00 00                	add    %al,(%eax)
 2cf:	3e 81 00 00 02 00 00 	addl   $0x200,%ds:(%eax)
 2d6:	00 01                	add    %al,(%ecx)
 2d8:	30 08                	xor    %cl,(%eax)
 2da:	19 01                	sbb    %eax,(%ecx)
 2dc:	00 00                	add    %al,(%eax)
 2de:	39 00                	cmp    %eax,(%eax)
 2e0:	00 00                	add    %al,(%eax)
 2e2:	09 3e                	or     %edi,(%esi)
 2e4:	81 00 00 02 00 00    	addl   $0x200,(%eax)
 2ea:	00 0a                	add    %cl,(%edx)
 2ec:	af                   	scas   %es:(%edi),%eax
 2ed:	02 00                	add    (%eax),%al
 2ef:	00 00                	add    %al,(%eax)
 2f1:	00 00                	add    %al,(%eax)
 2f3:	0c c5                	or     $0xc5,%al
 2f5:	03 00                	add    (%eax),%eax
 2f7:	00 01                	add    %al,(%ecx)
 2f9:	1b 5d 00             	sbb    0x0(%ebp),%ebx
 2fc:	00 00                	add    %al,(%eax)
 2fe:	03 30                	add    (%eax),%esi
 300:	01 00                	add    %eax,(%eax)
 302:	00 0d ab 03 00 00    	add    %cl,0x3ab
 308:	01 1b                	add    %ebx,(%ebx)
 30a:	6f                   	outsl  %ds:(%esi),(%dx)
 30b:	00 00                	add    %al,(%eax)
 30d:	00 0e                	add    %cl,(%esi)
 30f:	72 65                	jb     376 <deregister_tm_clones-0x7a8a>
 311:	74 00                	je     313 <deregister_tm_clones-0x7aed>
 313:	01 1d 5d 00 00 00    	add    %ebx,0x5d
 319:	00 0f                	add    %cl,(%edi)
 31b:	e3 02                	jecxz  31f <deregister_tm_clones-0x7ae1>
 31d:	00 00                	add    %al,(%eax)
 31f:	01 16                	add    %edx,(%esi)
 321:	e3 80                	jecxz  2a3 <deregister_tm_clones-0x7b5d>
 323:	00 00                	add    %al,(%eax)
 325:	41                   	inc    %ecx
 326:	00 00                	add    %al,(%eax)
 328:	00 01                	add    %al,(%ecx)
 32a:	9c                   	pushf  
 32b:	82 01 00             	addb   $0x0,(%ecx)
 32e:	00 10                	add    %dl,(%eax)
 330:	63 00                	arpl   %ax,(%eax)
 332:	01 16                	add    %edx,(%esi)
 334:	94                   	xchg   %eax,%esp
 335:	00 00                	add    %al,(%eax)
 337:	00 4e 00             	add    %cl,0x0(%esi)
 33a:	00 00                	add    %al,(%eax)
 33c:	11 98 03 00 00 01    	adc    %ebx,0x1000003(%eax)
 342:	16                   	push   %ss
 343:	33 00                	xor    (%eax),%eax
 345:	00 00                	add    %al,(%eax)
 347:	02 91 04 12 78 00    	add    0x781204(%ecx),%dl
 34d:	01 16                	add    %edx,(%esi)
 34f:	33 00                	xor    (%eax),%eax
 351:	00 00                	add    %al,(%eax)
 353:	02 91 08 12 79 00    	add    0x791208(%ecx),%dl
 359:	01 16                	add    %edx,(%esi)
 35b:	33 00                	xor    (%eax),%eax
 35d:	00 00                	add    %al,(%eax)
 35f:	02 91 0c 13 1c 81    	add    -0x7ee3ecf4(%ecx),%dl
 365:	00 00                	add    %al,(%eax)
 367:	b7 02                	mov    $0x2,%bh
 369:	00 00                	add    %al,(%eax)
 36b:	00 0f                	add    %cl,(%edi)
 36d:	b9 03 00 00 01       	mov    $0x1000003,%ecx
 372:	0f b4 80 00 00 2f 00 	lfs    0x2f0000(%eax),%eax
 379:	00 00                	add    %al,(%eax)
 37b:	01 9c d9 01 00 00 12 	add    %ebx,0x12000001(%ecx,%ebx,8)
 382:	63 00                	arpl   %ax,(%eax)
 384:	01 0f                	add    %ecx,(%edi)
 386:	94                   	xchg   %eax,%esp
 387:	00 00                	add    %al,(%eax)
 389:	00 02                	add    %al,(%edx)
 38b:	91                   	xchg   %eax,%ecx
 38c:	00 11                	add    %dl,(%ecx)
 38e:	98                   	cwtl   
 38f:	03 00                	add    (%eax),%eax
 391:	00 01                	add    %al,(%ecx)
 393:	0f 33                	rdpmc  
 395:	00 00                	add    %al,(%eax)
 397:	00 02                	add    %al,(%edx)
 399:	91                   	xchg   %eax,%ecx
 39a:	04 12                	add    $0x12,%al
 39c:	78 00                	js     39e <deregister_tm_clones-0x7a62>
 39e:	01 0f                	add    %ecx,(%edi)
 3a0:	33 00                	xor    (%eax),%eax
 3a2:	00 00                	add    %al,(%eax)
 3a4:	02 91 08 12 79 00    	add    0x791208(%ecx),%dl
 3aa:	01 0f                	add    %ecx,(%edi)
 3ac:	33 00                	xor    (%eax),%eax
 3ae:	00 00                	add    %al,(%eax)
 3b0:	02 91 0c 14 c5 02    	add    0x2c5140c(%ecx),%dl
 3b6:	00 00                	add    %al,(%eax)
 3b8:	01 11                	add    %edx,(%ecx)
 3ba:	d9 01                	flds   (%ecx)
 3bc:	00 00                	add    %al,(%eax)
 3be:	62 00                	bound  %eax,(%eax)
 3c0:	00 00                	add    %al,(%eax)
 3c2:	00 15 04 7a 00 00    	add    %dl,0x7a04
 3c8:	00 0f                	add    %cl,(%edi)
 3ca:	57                   	push   %edi
 3cb:	01 00                	add    %eax,(%eax)
 3cd:	00 01                	add    %al,(%ecx)
 3cf:	02 08                	add    (%eax),%cl
 3d1:	80 00 00             	addb   $0x0,(%eax)
 3d4:	ac                   	lods   %ds:(%esi),%al
 3d5:	00 00                	add    %al,(%eax)
 3d7:	00 01                	add    %al,(%ecx)
 3d9:	9c                   	pushf  
 3da:	82 02 00             	addb   $0x0,(%edx)
 3dd:	00 10                	add    %dl,(%eax)
 3df:	6e                   	outsb  %ds:(%esi),(%dx)
 3e0:	75 6d                	jne    44f <deregister_tm_clones-0x79b1>
 3e2:	00 01                	add    %al,(%ecx)
 3e4:	02 33                	add    (%ebx),%dh
 3e6:	00 00                	add    %al,(%eax)
 3e8:	00 87 00 00 00 16    	add    %al,0x16000000(%edi)
 3ee:	98                   	cwtl   
 3ef:	03 00                	add    (%eax),%eax
 3f1:	00 01                	add    %al,(%ecx)
 3f3:	02 33                	add    (%ebx),%dh
 3f5:	00 00                	add    %al,(%eax)
 3f7:	00 9b 00 00 00 10    	add    %bl,0x10000000(%ebx)
 3fd:	70 6f                	jo     46e <deregister_tm_clones-0x7992>
 3ff:	73 00                	jae    401 <deregister_tm_clones-0x79ff>
 401:	01 02                	add    %eax,(%edx)
 403:	33 00                	xor    (%eax),%eax
 405:	00 00                	add    %al,(%eax)
 407:	af                   	scas   %es:(%edi),%eax
 408:	00 00                	add    %al,(%eax)
 40a:	00 14 a6             	add    %dl,(%esi,%eiz,4)
 40d:	03 00                	add    (%eax),%eax
 40f:	00 01                	add    %al,(%ecx)
 411:	04 33                	add    $0x33,%al
 413:	00 00                	add    %al,(%eax)
 415:	00 c3                	add    %al,%bl
 417:	00 00                	add    %al,(%eax)
 419:	00 17                	add    %dl,(%edi)
 41b:	6c                   	insb   (%dx),%es:(%edi)
 41c:	65 6e                	outsb  %gs:(%esi),(%dx)
 41e:	00 01                	add    %al,(%ecx)
 420:	05 33 00 00 00       	add    $0x33,%eax
 425:	e2 00                	loop   427 <deregister_tm_clones-0x79d9>
 427:	00 00                	add    %al,(%eax)
 429:	17                   	pop    %ss
 42a:	61                   	popa   
 42b:	72 72                	jb     49f <deregister_tm_clones-0x7961>
 42d:	00 01                	add    %al,(%ecx)
 42f:	07                   	pop    %es
 430:	82 02 00             	addb   $0x0,(%edx)
 433:	00 19                	add    %bl,(%ecx)
 435:	01 00                	add    %eax,(%eax)
 437:	00 14 cb             	add    %dl,(%ebx,%ecx,8)
 43a:	02 00                	add    (%eax),%al
 43c:	00 01                	add    %al,(%ecx)
 43e:	08 33                	or     %dh,(%ebx)
 440:	00 00                	add    %al,(%eax)
 442:	00 2d 01 00 00 18    	add    %ch,0x18000001
 448:	57                   	push   %edi
 449:	80 00 00             	addb   $0x0,(%eax)
 44c:	31 00                	xor    %eax,(%eax)
 44e:	00 00                	add    %al,(%eax)
 450:	78 02                	js     454 <deregister_tm_clones-0x79ac>
 452:	00 00                	add    %al,(%eax)
 454:	17                   	pop    %ss
 455:	69 00 01 09 33 00    	imul   $0x330901,(%eax),%eax
 45b:	00 00                	add    %al,(%eax)
 45d:	64 01 00             	add    %eax,%fs:(%eax)
 460:	00 00                	add    %al,(%eax)
 462:	13 a1 80 00 00 b7    	adc    -0x48ffff80(%ecx),%esp
 468:	02 00                	add    (%eax),%al
 46a:	00 00                	add    %al,(%eax)
 46c:	19 94 00 00 00 94 02 	sbb    %edx,0x2940000(%eax,%eax,1)
 473:	00 00                	add    %al,(%eax)
 475:	1a 2c 00             	sbb    (%eax,%eax,1),%ch
 478:	00 00                	add    %al,(%eax)
 47a:	02 71 00             	add    0x0(%ecx),%dh
 47d:	00 1b                	add    %bl,(%ebx)
 47f:	09 01                	or     %eax,(%ecx)
 481:	00 00                	add    %al,(%eax)
 483:	24 81                	and    $0x81,%al
 485:	00 00                	add    %al,(%eax)
 487:	0f 00 00             	sldt   (%eax)
 48a:	00 01                	add    %al,(%ecx)
 48c:	9c                   	pushf  
 48d:	b7 02                	mov    $0x2,%bh
 48f:	00 00                	add    %al,(%eax)
 491:	1c 19                	sbb    $0x19,%al
 493:	01 00                	add    %eax,(%eax)
 495:	00 02                	add    %al,(%edx)
 497:	91                   	xchg   %eax,%ecx
 498:	00 1d 24 01 00 00    	add    %bl,0x124
 49e:	01 50 00             	add    %edx,0x0(%eax)
 4a1:	1e                   	push   %ds
 4a2:	1f                   	pop    %ds
 4a3:	02 00                	add    (%eax),%al
 4a5:	00 1f                	add    %bl,(%edi)
 4a7:	02 00                	add    (%eax),%al
 4a9:	00 03                	add    %al,(%ebx)
 4ab:	07                   	pop    %es
	...

Disassembly of section .debug_abbrev:

00000000 <.debug_abbrev>:
   0:	01 11                	add    %edx,(%ecx)
   2:	01 25 0e 13 0b 03    	add    %esp,0x30b130e
   8:	0e                   	push   %cs
   9:	1b 0e                	sbb    (%esi),%ecx
   b:	11 01                	adc    %eax,(%ecx)
   d:	12 06                	adc    (%esi),%al
   f:	10 17                	adc    %dl,(%edi)
  11:	00 00                	add    %al,(%eax)
  13:	02 24 00             	add    (%eax,%eax,1),%ah
  16:	0b 0b                	or     (%ebx),%ecx
  18:	3e 0b 03             	or     %ds:(%ebx),%eax
  1b:	0e                   	push   %cs
  1c:	00 00                	add    %al,(%eax)
  1e:	03 3b                	add    (%ebx),%edi
  20:	00 03                	add    %al,(%ebx)
  22:	0e                   	push   %cs
  23:	00 00                	add    %al,(%eax)
  25:	04 24                	add    $0x24,%al
  27:	00 0b                	add    %cl,(%ebx)
  29:	0b 3e                	or     (%esi),%edi
  2b:	0b 03                	or     (%ebx),%eax
  2d:	08 00                	or     %al,(%eax)
  2f:	00 05 26 00 49 13    	add    %al,0x13490026
  35:	00 00                	add    %al,(%eax)
  37:	06                   	push   %es
  38:	04 01                	add    $0x1,%al
  3a:	03 0e                	add    (%esi),%ecx
  3c:	3e 0b 0b             	or     %ds:(%ebx),%ecx
  3f:	0b 49 13             	or     0x13(%ecx),%ecx
  42:	3a 0b                	cmp    (%ebx),%cl
  44:	3b 0b                	cmp    (%ebx),%ecx
  46:	01 13                	add    %edx,(%ebx)
  48:	00 00                	add    %al,(%eax)
  4a:	07                   	pop    %es
  4b:	28 00                	sub    %al,(%eax)
  4d:	03 0e                	add    (%esi),%ecx
  4f:	1c 0b                	sbb    $0xb,%al
  51:	00 00                	add    %al,(%eax)
  53:	08 34 00             	or     %dh,(%eax,%eax,1)
  56:	03 08                	add    (%eax),%ecx
  58:	3a 0b                	cmp    (%ebx),%cl
  5a:	3b 0b                	cmp    (%ebx),%ecx
  5c:	49                   	dec    %ecx
  5d:	13 3f                	adc    (%edi),%edi
  5f:	19 02                	sbb    %eax,(%edx)
  61:	18 00                	sbb    %al,(%eax)
  63:	00 09                	add    %cl,(%ecx)
  65:	0f 00 0b             	str    (%ebx)
  68:	0b 49 13             	or     0x13(%ecx),%ecx
  6b:	00 00                	add    %al,(%eax)
  6d:	0a 2e                	or     (%esi),%ch
  6f:	01 3f                	add    %edi,(%edi)
  71:	19 03                	sbb    %eax,(%ebx)
  73:	0e                   	push   %cs
  74:	3a 0b                	cmp    (%ebx),%cl
  76:	3b 0b                	cmp    (%ebx),%ecx
  78:	11 01                	adc    %eax,(%ecx)
  7a:	12 06                	adc    (%esi),%al
  7c:	40                   	inc    %eax
  7d:	18 97 42 19 01 13    	sbb    %dl,0x13011942(%edi)
  83:	00 00                	add    %al,(%eax)
  85:	0b 34 00             	or     (%eax,%eax,1),%esi
  88:	03 0e                	add    (%esi),%ecx
  8a:	3a 0b                	cmp    (%ebx),%cl
  8c:	3b 0b                	cmp    (%ebx),%ecx
  8e:	49                   	dec    %ecx
  8f:	13 1c 05 00 00 0c 34 	adc    0x340c0000(,%eax,1),%ebx
  96:	00 03                	add    %al,(%ebx)
  98:	08 3a                	or     %bh,(%edx)
  9a:	0b 3b                	or     (%ebx),%edi
  9c:	0b 49 13             	or     0x13(%ecx),%ecx
  9f:	1c 05                	sbb    $0x5,%al
  a1:	00 00                	add    %al,(%eax)
  a3:	0d 34 00 03 08       	or     $0x8030034,%eax
  a8:	3a 0b                	cmp    (%ebx),%cl
  aa:	3b 0b                	cmp    (%ebx),%ecx
  ac:	49                   	dec    %ecx
  ad:	13 02                	adc    (%edx),%eax
  af:	18 00                	sbb    %al,(%eax)
  b1:	00 0e                	add    %cl,(%esi)
  b3:	34 00                	xor    $0x0,%al
  b5:	03 08                	add    (%eax),%ecx
  b7:	3a 0b                	cmp    (%ebx),%cl
  b9:	3b 0b                	cmp    (%ebx),%ecx
  bb:	49                   	dec    %ecx
  bc:	13 00                	adc    (%eax),%eax
  be:	00 0f                	add    %cl,(%edi)
  c0:	0b 01                	or     (%ecx),%eax
  c2:	11 01                	adc    %eax,(%ecx)
  c4:	12 06                	adc    (%esi),%al
  c6:	01 13                	add    %edx,(%ebx)
  c8:	00 00                	add    %al,(%eax)
  ca:	10 34 00             	adc    %dh,(%eax,%eax,1)
  cd:	03 08                	add    (%eax),%ecx
  cf:	3a 0b                	cmp    (%ebx),%cl
  d1:	3b 0b                	cmp    (%ebx),%ecx
  d3:	49                   	dec    %ecx
  d4:	13 02                	adc    (%edx),%eax
  d6:	17                   	pop    %ss
  d7:	00 00                	add    %al,(%eax)
  d9:	11 89 82 01 00 11    	adc    %ecx,0x11000182(%ecx)
  df:	01 31                	add    %esi,(%ecx)
  e1:	13 00                	adc    (%eax),%eax
  e3:	00 12                	add    %dl,(%edx)
  e5:	01 01                	add    %eax,(%ecx)
  e7:	49                   	dec    %ecx
  e8:	13 01                	adc    (%ecx),%eax
  ea:	13 00                	adc    (%eax),%eax
  ec:	00 13                	add    %dl,(%ebx)
  ee:	21 00                	and    %eax,(%eax)
  f0:	49                   	dec    %ecx
  f1:	13 2f                	adc    (%edi),%ebp
  f3:	0b 00                	or     (%eax),%eax
  f5:	00 14 2e             	add    %dl,(%esi,%ebp,1)
  f8:	00 3f                	add    %bh,(%edi)
  fa:	19 3c 19             	sbb    %edi,(%ecx,%ebx,1)
  fd:	6e                   	outsb  %ds:(%esi),(%dx)
  fe:	0e                   	push   %cs
  ff:	03 0e                	add    (%esi),%ecx
 101:	3a 0b                	cmp    (%ebx),%cl
 103:	3b 0b                	cmp    (%ebx),%ecx
 105:	00 00                	add    %al,(%eax)
 107:	00 01                	add    %al,(%ecx)
 109:	11 01                	adc    %eax,(%ecx)
 10b:	25 0e 13 0b 03       	and    $0x30b130e,%eax
 110:	0e                   	push   %cs
 111:	1b 0e                	sbb    (%esi),%ecx
 113:	11 01                	adc    %eax,(%ecx)
 115:	12 06                	adc    (%esi),%al
 117:	10 17                	adc    %dl,(%edi)
 119:	00 00                	add    %al,(%eax)
 11b:	02 24 00             	add    (%eax,%eax,1),%ah
 11e:	0b 0b                	or     (%ebx),%ecx
 120:	3e 0b 03             	or     %ds:(%ebx),%eax
 123:	0e                   	push   %cs
 124:	00 00                	add    %al,(%eax)
 126:	03 24 00             	add    (%eax,%eax,1),%esp
 129:	0b 0b                	or     (%ebx),%ecx
 12b:	3e 0b 03             	or     %ds:(%ebx),%eax
 12e:	08 00                	or     %al,(%eax)
 130:	00 04 16             	add    %al,(%esi,%edx,1)
 133:	00 03                	add    %al,(%ebx)
 135:	0e                   	push   %cs
 136:	3a 0b                	cmp    (%ebx),%cl
 138:	3b 0b                	cmp    (%ebx),%ecx
 13a:	49                   	dec    %ecx
 13b:	13 00                	adc    (%eax),%eax
 13d:	00 05 35 00 49 13    	add    %al,0x13490035
 143:	00 00                	add    %al,(%eax)
 145:	06                   	push   %es
 146:	2e 01 3f             	add    %edi,%cs:(%edi)
 149:	19 03                	sbb    %eax,(%ebx)
 14b:	0e                   	push   %cs
 14c:	3a 0b                	cmp    (%ebx),%cl
 14e:	3b 0b                	cmp    (%ebx),%ecx
 150:	49                   	dec    %ecx
 151:	13 11                	adc    (%ecx),%edx
 153:	01 12                	add    %edx,(%edx)
 155:	06                   	push   %es
 156:	40                   	inc    %eax
 157:	18 97 42 19 01 13    	sbb    %dl,0x13011942(%edi)
 15d:	00 00                	add    %al,(%eax)
 15f:	07                   	pop    %es
 160:	1d 01 31 13 11       	sbb    $0x11133101,%eax
 165:	01 12                	add    %edx,(%edx)
 167:	06                   	push   %es
 168:	58                   	pop    %eax
 169:	0b 59 0b             	or     0xb(%ecx),%ebx
 16c:	01 13                	add    %edx,(%ebx)
 16e:	00 00                	add    %al,(%eax)
 170:	08 05 00 31 13 02    	or     %al,0x2133100
 176:	17                   	pop    %ss
 177:	00 00                	add    %al,(%eax)
 179:	09 0b                	or     %ecx,(%ebx)
 17b:	01 11                	add    %edx,(%ecx)
 17d:	01 12                	add    %edx,(%edx)
 17f:	06                   	push   %es
 180:	00 00                	add    %al,(%eax)
 182:	0a 34 00             	or     (%eax,%eax,1),%dh
 185:	31 13                	xor    %edx,(%ebx)
 187:	00 00                	add    %al,(%eax)
 189:	0b 1d 01 31 13 11    	or     0x11133101,%ebx
 18f:	01 12                	add    %edx,(%edx)
 191:	06                   	push   %es
 192:	58                   	pop    %eax
 193:	0b 59 0b             	or     0xb(%ecx),%ebx
 196:	00 00                	add    %al,(%eax)
 198:	0c 2e                	or     $0x2e,%al
 19a:	01 3f                	add    %edi,(%edi)
 19c:	19 03                	sbb    %eax,(%ebx)
 19e:	0e                   	push   %cs
 19f:	3a 0b                	cmp    (%ebx),%cl
 1a1:	3b 0b                	cmp    (%ebx),%ecx
 1a3:	27                   	daa    
 1a4:	19 49 13             	sbb    %ecx,0x13(%ecx)
 1a7:	20 0b                	and    %cl,(%ebx)
 1a9:	01 13                	add    %edx,(%ebx)
 1ab:	00 00                	add    %al,(%eax)
 1ad:	0d 05 00 03 0e       	or     $0xe030005,%eax
 1b2:	3a 0b                	cmp    (%ebx),%cl
 1b4:	3b 0b                	cmp    (%ebx),%ecx
 1b6:	49                   	dec    %ecx
 1b7:	13 00                	adc    (%eax),%eax
 1b9:	00 0e                	add    %cl,(%esi)
 1bb:	34 00                	xor    $0x0,%al
 1bd:	03 08                	add    (%eax),%ecx
 1bf:	3a 0b                	cmp    (%ebx),%cl
 1c1:	3b 0b                	cmp    (%ebx),%ecx
 1c3:	49                   	dec    %ecx
 1c4:	13 00                	adc    (%eax),%eax
 1c6:	00 0f                	add    %cl,(%edi)
 1c8:	2e 01 3f             	add    %edi,%cs:(%edi)
 1cb:	19 03                	sbb    %eax,(%ebx)
 1cd:	0e                   	push   %cs
 1ce:	3a 0b                	cmp    (%ebx),%cl
 1d0:	3b 0b                	cmp    (%ebx),%ecx
 1d2:	27                   	daa    
 1d3:	19 11                	sbb    %edx,(%ecx)
 1d5:	01 12                	add    %edx,(%edx)
 1d7:	06                   	push   %es
 1d8:	40                   	inc    %eax
 1d9:	18 97 42 19 01 13    	sbb    %dl,0x13011942(%edi)
 1df:	00 00                	add    %al,(%eax)
 1e1:	10 05 00 03 08 3a    	adc    %al,0x3a080300
 1e7:	0b 3b                	or     (%ebx),%edi
 1e9:	0b 49 13             	or     0x13(%ecx),%ecx
 1ec:	02 17                	add    (%edi),%dl
 1ee:	00 00                	add    %al,(%eax)
 1f0:	11 05 00 03 0e 3a    	adc    %eax,0x3a0e0300
 1f6:	0b 3b                	or     (%ebx),%edi
 1f8:	0b 49 13             	or     0x13(%ecx),%ecx
 1fb:	02 18                	add    (%eax),%bl
 1fd:	00 00                	add    %al,(%eax)
 1ff:	12 05 00 03 08 3a    	adc    0x3a080300,%al
 205:	0b 3b                	or     (%ebx),%edi
 207:	0b 49 13             	or     0x13(%ecx),%ecx
 20a:	02 18                	add    (%eax),%bl
 20c:	00 00                	add    %al,(%eax)
 20e:	13 89 82 01 00 11    	adc    0x11000182(%ecx),%ecx
 214:	01 31                	add    %esi,(%ecx)
 216:	13 00                	adc    (%eax),%eax
 218:	00 14 34             	add    %dl,(%esp,%esi,1)
 21b:	00 03                	add    %al,(%ebx)
 21d:	0e                   	push   %cs
 21e:	3a 0b                	cmp    (%ebx),%cl
 220:	3b 0b                	cmp    (%ebx),%ecx
 222:	49                   	dec    %ecx
 223:	13 02                	adc    (%edx),%eax
 225:	17                   	pop    %ss
 226:	00 00                	add    %al,(%eax)
 228:	15 0f 00 0b 0b       	adc    $0xb0b000f,%eax
 22d:	49                   	dec    %ecx
 22e:	13 00                	adc    (%eax),%eax
 230:	00 16                	add    %dl,(%esi)
 232:	05 00 03 0e 3a       	add    $0x3a0e0300,%eax
 237:	0b 3b                	or     (%ebx),%edi
 239:	0b 49 13             	or     0x13(%ecx),%ecx
 23c:	02 17                	add    (%edi),%dl
 23e:	00 00                	add    %al,(%eax)
 240:	17                   	pop    %ss
 241:	34 00                	xor    $0x0,%al
 243:	03 08                	add    (%eax),%ecx
 245:	3a 0b                	cmp    (%ebx),%cl
 247:	3b 0b                	cmp    (%ebx),%ecx
 249:	49                   	dec    %ecx
 24a:	13 02                	adc    (%edx),%eax
 24c:	17                   	pop    %ss
 24d:	00 00                	add    %al,(%eax)
 24f:	18 0b                	sbb    %cl,(%ebx)
 251:	01 11                	add    %edx,(%ecx)
 253:	01 12                	add    %edx,(%edx)
 255:	06                   	push   %es
 256:	01 13                	add    %edx,(%ebx)
 258:	00 00                	add    %al,(%eax)
 25a:	19 01                	sbb    %eax,(%ecx)
 25c:	01 49 13             	add    %ecx,0x13(%ecx)
 25f:	01 13                	add    %edx,(%ebx)
 261:	00 00                	add    %al,(%eax)
 263:	1a 21                	sbb    (%ecx),%ah
 265:	00 49 13             	add    %cl,0x13(%ecx)
 268:	2f                   	das    
 269:	18 00                	sbb    %al,(%eax)
 26b:	00 1b                	add    %bl,(%ebx)
 26d:	2e 01 31             	add    %esi,%cs:(%ecx)
 270:	13 11                	adc    (%ecx),%edx
 272:	01 12                	add    %edx,(%edx)
 274:	06                   	push   %es
 275:	40                   	inc    %eax
 276:	18 97 42 19 01 13    	sbb    %dl,0x13011942(%edi)
 27c:	00 00                	add    %al,(%eax)
 27e:	1c 05                	sbb    $0x5,%al
 280:	00 31                	add    %dh,(%ecx)
 282:	13 02                	adc    (%edx),%eax
 284:	18 00                	sbb    %al,(%eax)
 286:	00 1d 34 00 31 13    	add    %bl,0x13310034
 28c:	02 18                	add    (%eax),%bl
 28e:	00 00                	add    %al,(%eax)
 290:	1e                   	push   %ds
 291:	2e 00 3f             	add    %bh,%cs:(%edi)
 294:	19 3c 19             	sbb    %edi,(%ecx,%ebx,1)
 297:	6e                   	outsb  %ds:(%esi),(%dx)
 298:	0e                   	push   %cs
 299:	03 0e                	add    (%esi),%ecx
 29b:	3a 0b                	cmp    (%ebx),%cl
 29d:	3b 0b                	cmp    (%ebx),%ecx
 29f:	00 00                	add    %al,(%eax)
	...

Disassembly of section .debug_loc:

00000000 <.debug_loc>:
   0:	80 00 00             	addb   $0x0,(%eax)
   3:	00 90 00 00 00 07    	add    %dl,0x7000000(%eax)
   9:	00 70 00             	add    %dh,0x0(%eax)
   c:	48                   	dec    %eax
   d:	24 48                	and    $0x48,%al
   f:	26 9f                	es lahf 
  11:	90                   	nop
  12:	00 00                	add    %al,(%eax)
  14:	00 97 00 00 00 01    	add    %dl,0x1000000(%edi)
  1a:	00 50 00             	add    %dl,0x0(%eax)
  1d:	00 00                	add    %al,(%eax)
  1f:	00 00                	add    %al,(%eax)
  21:	00 00                	add    %al,(%eax)
  23:	00 30                	add    %dh,(%eax)
  25:	01 00                	add    %eax,(%eax)
  27:	00 32                	add    %dh,(%edx)
  29:	01 00                	add    %eax,(%eax)
  2b:	00 03                	add    %al,(%ebx)
  2d:	00 08                	add    %cl,(%eax)
  2f:	64 9f                	fs lahf 
	...
  39:	36 01 00             	add    %eax,%ss:(%eax)
  3c:	00 38                	add    %bh,(%eax)
  3e:	01 00                	add    %eax,(%eax)
  40:	00 03                	add    %al,(%ebx)
  42:	00 08                	add    %cl,(%eax)
  44:	60                   	pusha  
  45:	9f                   	lahf   
	...
  4e:	db 00                	fildl  (%eax)
  50:	00 00                	add    %al,(%eax)
  52:	13 01                	adc    (%ecx),%eax
  54:	00 00                	add    %al,(%eax)
  56:	02 00                	add    (%eax),%al
  58:	91                   	xchg   %eax,%ecx
	...
  61:	00 b1 00 00 00 bf    	add    %dh,-0x41000000(%ecx)
  67:	00 00                	add    %al,(%eax)
  69:	00 04 00             	add    %al,(%eax,%eax,1)
  6c:	47                   	inc    %edi
  6d:	3f                   	aas    
  6e:	24 9f                	and    $0x9f,%al
  70:	bf 00 00 00 db       	mov    $0xdb000000,%edi
  75:	00 00                	add    %al,(%eax)
  77:	00 05 00 70 80 80    	add    %al,0x80807000
  7d:	2e 9f                	cs lahf 
	...
  8b:	8a 00                	mov    (%eax),%al
  8d:	00 00                	add    %al,(%eax)
  8f:	02 00                	add    (%eax),%al
  91:	91                   	xchg   %eax,%ecx
	...
  9e:	00 8a 00 00 00 02    	add    %cl,0x2000000(%edx)
  a4:	00 91 04 00 00 00    	add    %dl,0x4(%ecx)
	...
  b2:	00 8a 00 00 00 02    	add    %cl,0x2000000(%edx)
  b8:	00 91 08 00 00 00    	add    %dl,0x8(%ecx)
  be:	00 00                	add    %al,(%eax)
  c0:	00 00                	add    %al,(%eax)
  c2:	00 0d 00 00 00 1e    	add    %cl,0x1e000000
  c8:	00 00                	add    %al,(%eax)
  ca:	00 02                	add    %al,(%edx)
  cc:	00 91 00 1e 00 00    	add    %dl,0x1e00(%ecx)
  d2:	00 37                	add    %dh,(%edi)
  d4:	00 00                	add    %al,(%eax)
  d6:	00 01                	add    %al,(%ecx)
  d8:	00 50 00             	add    %dl,0x0(%eax)
  db:	00 00                	add    %al,(%eax)
  dd:	00 00                	add    %al,(%eax)
  df:	00 00                	add    %al,(%eax)
  e1:	00 0d 00 00 00 1e    	add    %cl,0x1e000000
  e7:	00 00                	add    %al,(%eax)
  e9:	00 02                	add    %al,(%edx)
  eb:	00 31                	add    %dh,(%ecx)
  ed:	9f                   	lahf   
  ee:	1e                   	push   %ds
  ef:	00 00                	add    %al,(%eax)
  f1:	00 30                	add    %dh,(%eax)
  f3:	00 00                	add    %al,(%eax)
  f5:	00 01                	add    %al,(%ecx)
  f7:	00 51 30             	add    %dl,0x30(%ecx)
  fa:	00 00                	add    %al,(%eax)
  fc:	00 32                	add    %dh,(%edx)
  fe:	00 00                	add    %al,(%eax)
 100:	00 03                	add    %al,(%ebx)
 102:	00 72 7f             	add    %dh,0x7f(%edx)
 105:	9f                   	lahf   
 106:	32 00                	xor    (%eax),%al
 108:	00 00                	add    %al,(%eax)
 10a:	98                   	cwtl   
 10b:	00 00                	add    %al,(%eax)
 10d:	00 01                	add    %al,(%ecx)
 10f:	00 51 00             	add    %dl,0x0(%ecx)
 112:	00 00                	add    %al,(%eax)
 114:	00 00                	add    %al,(%eax)
 116:	00 00                	add    %al,(%eax)
 118:	00 41 00             	add    %al,0x0(%ecx)
 11b:	00 00                	add    %al,(%eax)
 11d:	a8 00                	test   $0x0,%al
 11f:	00 00                	add    %al,(%eax)
 121:	02 00                	add    (%eax),%al
 123:	77 00                	ja     125 <deregister_tm_clones-0x7cdb>
	...
 12d:	41                   	inc    %ecx
 12e:	00 00                	add    %al,(%eax)
 130:	00 4f 00             	add    %cl,0x0(%edi)
 133:	00 00                	add    %al,(%eax)
 135:	02 00                	add    (%eax),%al
 137:	31 9f 4f 00 00 00    	xor    %ebx,0x4f(%edi)
 13d:	79 00                	jns    13f <deregister_tm_clones-0x7cc1>
 13f:	00 00                	add    %al,(%eax)
 141:	02 00                	add    (%eax),%al
 143:	91                   	xchg   %eax,%ecx
 144:	68 79 00 00 00       	push   $0x79
 149:	98                   	cwtl   
 14a:	00 00                	add    %al,(%eax)
 14c:	00 01                	add    %al,(%ecx)
 14e:	00 50 98             	add    %dl,-0x68(%eax)
 151:	00 00                	add    %al,(%eax)
 153:	00 ac 00 00 00 02 00 	add    %ch,0x20000(%eax,%eax,1)
 15a:	91                   	xchg   %eax,%ecx
 15b:	68 00 00 00 00       	push   $0x0
 160:	00 00                	add    %al,(%eax)
 162:	00 00                	add    %al,(%eax)
 164:	41                   	inc    %ecx
 165:	00 00                	add    %al,(%eax)
 167:	00 4f 00             	add    %cl,0x0(%edi)
 16a:	00 00                	add    %al,(%eax)
 16c:	02 00                	add    (%eax),%al
 16e:	30 9f 4f 00 00 00    	xor    %bl,0x4f(%edi)
 174:	6e                   	outsb  %ds:(%esi),(%dx)
 175:	00 00                	add    %al,(%eax)
 177:	00 09                	add    %cl,(%ecx)
 179:	00 77 00             	add    %dh,0x0(%edi)
 17c:	71 00                	jno    17e <deregister_tm_clones-0x7c82>
 17e:	22 73 00             	and    0x0(%ebx),%dh
 181:	1c 9f                	sbb    $0x9f,%al
 183:	6e                   	outsb  %ds:(%esi),(%dx)
 184:	00 00                	add    %al,(%eax)
 186:	00 7b 00             	add    %bh,0x0(%ebx)
 189:	00 00                	add    %al,(%eax)
 18b:	0b 00                	or     (%eax),%eax
 18d:	77 00                	ja     18f <deregister_tm_clones-0x7c71>
 18f:	71 00                	jno    191 <deregister_tm_clones-0x7c6f>
 191:	22 73 00             	and    0x0(%ebx),%dh
 194:	1c 23                	sbb    $0x23,%al
 196:	01 9f 7b 00 00 00    	add    %ebx,0x7b(%edi)
 19c:	98                   	cwtl   
 19d:	00 00                	add    %al,(%eax)
 19f:	00 09                	add    %cl,(%ecx)
 1a1:	00 77 00             	add    %dh,0x0(%edi)
 1a4:	71 00                	jno    1a6 <deregister_tm_clones-0x7c5a>
 1a6:	22 73 00             	and    0x0(%ebx),%dh
 1a9:	1c 9f                	sbb    $0x9f,%al
	...

Disassembly of section .debug_aranges:

00000000 <.debug_aranges>:
   0:	1c 00                	sbb    $0x0,%al
   2:	00 00                	add    %al,(%eax)
   4:	02 00                	add    (%eax),%al
   6:	00 00                	add    %al,(%eax)
   8:	00 00                	add    %al,(%eax)
   a:	04 00                	add    $0x0,%al
   c:	00 00                	add    %al,(%eax)
   e:	00 00                	add    %al,(%eax)
  10:	1d 7f 00 00 a5       	sbb    $0xa500007f,%eax
	...
  1d:	00 00                	add    %al,(%eax)
  1f:	00 1c 00             	add    %bl,(%eax,%eax,1)
  22:	00 00                	add    %al,(%eax)
  24:	02 00                	add    (%eax),%al
  26:	ea 01 00 00 04 00 00 	ljmp   $0x0,$0x4000001
  2d:	00 00                	add    %al,(%eax)
  2f:	00 08                	add    %cl,(%eax)
  31:	80 00 00             	addb   $0x0,(%eax)
  34:	3c 01                	cmp    $0x1,%al
	...

Disassembly of section .debug_line:

00000000 <.debug_line>:
   0:	7d 00                	jge    2 <deregister_tm_clones-0x7dfe>
   2:	00 00                	add    %al,(%eax)
   4:	02 00                	add    (%eax),%al
   6:	5a                   	pop    %edx
   7:	00 00                	add    %al,(%eax)
   9:	00 01                	add    %al,(%ecx)
   b:	01 fb                	add    %edi,%ebx
   d:	0e                   	push   %cs
   e:	0d 00 01 01 01       	or     $0x1010100,%eax
  13:	01 00                	add    %eax,(%eax)
  15:	00 00                	add    %al,(%eax)
  17:	01 00                	add    %eax,(%eax)
  19:	00 01                	add    %al,(%ecx)
  1b:	6b 65 72 6e          	imul   $0x6e,0x72(%ebp),%esp
  1f:	65 6c                	gs insb (%dx),%es:(%edi)
  21:	00 62 61             	add    %ah,0x61(%edx)
  24:	73 69                	jae    8f <deregister_tm_clones-0x7d71>
  26:	63 5f 6c             	arpl   %bx,0x6c(%edi)
  29:	69 62 00 69 6e 63 6c 	imul   $0x6c636e69,0x0(%edx),%esp
  30:	75 64                	jne    96 <deregister_tm_clones-0x7d6a>
  32:	65 00 00             	add    %al,%gs:(%eax)
  35:	6b 65 72 6e          	imul   $0x6e,0x72(%ebp),%esp
  39:	65 6c                	gs insb (%dx),%es:(%edi)
  3b:	5f                   	pop    %edi
  3c:	6d                   	insl   (%dx),%es:(%edi)
  3d:	61                   	popa   
  3e:	69 6e 2e 63 70 70 00 	imul   $0x707063,0x2e(%esi),%ebp
  45:	01 00                	add    %eax,(%eax)
  47:	00 62 61             	add    %ah,0x61(%edx)
  4a:	73 65                	jae    b1 <deregister_tm_clones-0x7d4f>
  4c:	5f                   	pop    %edi
  4d:	6c                   	insb   (%dx),%es:(%edi)
  4e:	69 62 2e 68 00 02 00 	imul   $0x20068,0x2e(%edx),%esp
  55:	00 64 65 66          	add    %ah,0x66(%ebp,%eiz,2)
  59:	69 6e 65 73 2e 68 00 	imul   $0x682e73,0x65(%esi),%ebp
  60:	03 00                	add    (%eax),%eax
  62:	00 00                	add    %al,(%eax)
  64:	00 05 02 1d 7f 00    	add    %al,0x7f1d02
  6a:	00 03                	add    %al,(%ebx)
  6c:	0e                   	push   %cs
  6d:	01 e5                	add    %esp,%ebp
  6f:	68 08 4c 08 83       	push   $0x83084c08
  74:	08 2f                	or     %ch,(%edi)
  76:	02 24 15 67 b9 4b 02 	add    0x24bb967(,%edx,1),%ah
  7d:	15 00 01 01 cf       	adc    $0xcf010100,%eax
  82:	00 00                	add    %al,(%eax)
  84:	00 02                	add    %al,(%edx)
  86:	00 79 00             	add    %bh,0x0(%ecx)
  89:	00 00                	add    %al,(%eax)
  8b:	01 01                	add    %eax,(%ecx)
  8d:	fb                   	sti    
  8e:	0e                   	push   %cs
  8f:	0d 00 01 01 01       	or     $0x1010100,%eax
  94:	01 00                	add    %eax,(%eax)
  96:	00 00                	add    %al,(%eax)
  98:	01 00                	add    %eax,(%eax)
  9a:	00 01                	add    %al,(%ecx)
  9c:	62 61 73             	bound  %esp,0x73(%ecx)
  9f:	69 63 5f 6c 69 62 00 	imul   $0x62696c,0x5f(%ebx),%esp
  a6:	2f                   	das    
  a7:	6f                   	outsl  %ds:(%esi),(%dx)
  a8:	70 74                	jo     11e <deregister_tm_clones-0x7ce2>
  aa:	2f                   	das    
  ab:	63 72 6f             	arpl   %si,0x6f(%edx)
  ae:	73 73                	jae    123 <deregister_tm_clones-0x7cdd>
  b0:	2f                   	das    
  b1:	67 63 63 2d          	arpl   %sp,0x2d(%bp,%di)
  b5:	69 33 38 36 2f 6c    	imul   $0x6c2f3638,(%ebx),%esi
  bb:	69 62 2f 67 63 63 2f 	imul   $0x2f636367,0x2f(%edx),%esp
  c2:	69 33 38 36 2d 65    	imul   $0x652d3638,(%ebx),%esi
  c8:	6c                   	insb   (%dx),%es:(%edi)
  c9:	66 2f                	data16 das 
  cb:	37                   	aaa    
  cc:	2e 33 2e             	xor    %cs:(%esi),%ebp
  cf:	30 2f                	xor    %ch,(%edi)
  d1:	69 6e 63 6c 75 64 65 	imul   $0x6564756c,0x63(%esi),%ebp
  d8:	00 00                	add    %al,(%eax)
  da:	63 5f 6c             	arpl   %bx,0x6c(%edi)
  dd:	69 62 2e 63 00 01 00 	imul   $0x10063,0x2e(%edx),%esp
  e4:	00 73 74             	add    %dh,0x74(%ebx)
  e7:	64 69 6e 74 2d 67 63 	imul   $0x6363672d,%fs:0x74(%esi),%ebp
  ee:	63 
  ef:	2e 68 00 02 00 00    	cs push $0x200
  f5:	62 61 73             	bound  %esp,0x73(%ecx)
  f8:	65 5f                	gs pop %edi
  fa:	6c                   	insb   (%dx),%es:(%edi)
  fb:	69 62 2e 68 00 01 00 	imul   $0x10068,0x2e(%edx),%esp
 102:	00 00                	add    %al,(%eax)
 104:	00 05 02 08 80 00    	add    %al,0x800802
 10a:	00 14 c9             	add    %dl,(%ecx,%ecx,8)
 10d:	59                   	pop    %ecx
 10e:	67 00 02             	add    %al,(%bp,%si)
 111:	04 01                	add    $0x1,%al
 113:	06                   	push   %es
 114:	66 06                	pushw  %es
 116:	08 3d 08 3d 00 02    	or     %bh,0x2003d08
 11c:	04 03                	add    $0x3,%al
 11e:	92                   	xchg   %eax,%edx
 11f:	00 02                	add    %al,(%edx)
 121:	04 03                	add    $0x3,%al
 123:	08 d5                	or     %dl,%ch
 125:	08 22                	or     %ah,(%edx)
 127:	59                   	pop    %ecx
 128:	08 3d 08 31 5a d7    	or     %bh,0xd75a3108
 12e:	08 75 4d             	or     %dh,0x4d(%ebp)
 131:	f3 02 29             	repz add (%ecx),%ch
 134:	13 85 5a 6a 03 0c    	adc    0xc036a5a(%ebp),%eax
 13a:	4a                   	dec    %edx
 13b:	00 02                	add    %al,(%edx)
 13d:	04 01                	add    $0x1,%al
 13f:	03 70 58             	add    0x58(%eax),%esi
 142:	00 02                	add    %al,(%edx)
 144:	04 01                	add    $0x1,%al
 146:	03 11                	add    (%ecx),%edx
 148:	2e 03 6f 4a          	add    %cs:0x4a(%edi),%ebp
 14c:	03 13                	add    (%ebx),%edx
 14e:	2e 02 04 00          	add    %cs:(%eax,%eax,1),%al
 152:	01 01                	add    %eax,(%ecx)

Disassembly of section .debug_str:

00000000 <.debug_str>:
   0:	56                   	push   %esi
   1:	47                   	inc    %edi
   2:	41                   	inc    %ecx
   3:	5f                   	pop    %edi
   4:	59                   	pop    %ecx
   5:	45                   	inc    %ebp
   6:	4c                   	dec    %esp
   7:	4c                   	dec    %esp
   8:	4f                   	dec    %edi
   9:	57                   	push   %edi
   a:	00 56 47             	add    %dl,0x47(%esi)
   d:	41                   	inc    %ecx
   e:	5f                   	pop    %edi
   f:	42                   	inc    %edx
  10:	4c                   	dec    %esp
  11:	55                   	push   %ebp
  12:	45                   	inc    %ebp
  13:	00 79 65             	add    %bh,0x65(%ecx)
  16:	61                   	popa   
  17:	72 00                	jb     19 <deregister_tm_clones-0x7de7>
  19:	56                   	push   %esi
  1a:	47                   	inc    %edi
  1b:	41                   	inc    %ecx
  1c:	5f                   	pop    %edi
  1d:	47                   	inc    %edi
  1e:	52                   	push   %edx
  1f:	45                   	inc    %ebp
  20:	45                   	inc    %ebp
  21:	4e                   	dec    %esi
  22:	00 56 47             	add    %dl,0x47(%esi)
  25:	41                   	inc    %ecx
  26:	5f                   	pop    %edi
  27:	57                   	push   %edi
  28:	48                   	dec    %eax
  29:	49                   	dec    %ecx
  2a:	54                   	push   %esp
  2b:	45                   	inc    %ebp
  2c:	00 73 68             	add    %dh,0x68(%ebx)
  2f:	6f                   	outsl  %ds:(%esi),(%dx)
  30:	72 74                	jb     a6 <deregister_tm_clones-0x7d5a>
  32:	20 75 6e             	and    %dh,0x6e(%ebp)
  35:	73 69                	jae    a0 <deregister_tm_clones-0x7d60>
  37:	67 6e                	outsb  %ds:(%si),(%dx)
  39:	65 64 20 69 6e       	gs and %ch,%fs:0x6e(%ecx)
  3e:	74 00                	je     40 <deregister_tm_clones-0x7dc0>
  40:	64 65 63 6c 74 79    	fs arpl %bp,%gs:0x79(%esp,%esi,2)
  46:	70 65                	jo     ad <deregister_tm_clones-0x7d53>
  48:	28 6e 75             	sub    %ch,0x75(%esi)
  4b:	6c                   	insb   (%dx),%es:(%edi)
  4c:	6c                   	insb   (%dx),%es:(%edi)
  4d:	70 74                	jo     c3 <deregister_tm_clones-0x7d3d>
  4f:	72 29                	jb     7a <deregister_tm_clones-0x7d86>
  51:	00 56 47             	add    %dl,0x47(%esi)
  54:	41                   	inc    %ecx
  55:	5f                   	pop    %edi
  56:	42                   	inc    %edx
  57:	52                   	push   %edx
  58:	49                   	dec    %ecx
  59:	47                   	inc    %edi
  5a:	48                   	dec    %eax
  5b:	54                   	push   %esp
  5c:	5f                   	pop    %edi
  5d:	43                   	inc    %ebx
  5e:	59                   	pop    %ecx
  5f:	41                   	inc    %ecx
  60:	4e                   	dec    %esi
  61:	00 56 47             	add    %dl,0x47(%esi)
  64:	41                   	inc    %ecx
  65:	5f                   	pop    %edi
  66:	43                   	inc    %ebx
  67:	4f                   	dec    %edi
  68:	4c                   	dec    %esp
  69:	4f                   	dec    %edi
  6a:	52                   	push   %edx
  6b:	00 56 47             	add    %dl,0x47(%esi)
  6e:	41                   	inc    %ecx
  6f:	5f                   	pop    %edi
  70:	43                   	inc    %ebx
  71:	59                   	pop    %ecx
  72:	41                   	inc    %ecx
  73:	4e                   	dec    %esi
  74:	00 56 47             	add    %dl,0x47(%esi)
  77:	41                   	inc    %ecx
  78:	5f                   	pop    %edi
  79:	42                   	inc    %edx
  7a:	52                   	push   %edx
  7b:	4f                   	dec    %edi
  7c:	57                   	push   %edi
  7d:	4e                   	dec    %esi
  7e:	00 75 6e             	add    %dh,0x6e(%ebp)
  81:	73 69                	jae    ec <deregister_tm_clones-0x7d14>
  83:	67 6e                	outsb  %ds:(%si),(%dx)
  85:	65 64 20 63 68       	gs and %ah,%fs:0x68(%ebx)
  8a:	61                   	popa   
  8b:	72 00                	jb     8d <deregister_tm_clones-0x7d73>
  8d:	56                   	push   %esi
  8e:	47                   	inc    %edi
  8f:	41                   	inc    %ecx
  90:	5f                   	pop    %edi
  91:	42                   	inc    %edx
  92:	52                   	push   %edx
  93:	49                   	dec    %ecx
  94:	47                   	inc    %edi
  95:	48                   	dec    %eax
  96:	54                   	push   %esp
  97:	5f                   	pop    %edi
  98:	4d                   	dec    %ebp
  99:	41                   	inc    %ecx
  9a:	47                   	inc    %edi
  9b:	45                   	inc    %ebp
  9c:	4e                   	dec    %esi
  9d:	54                   	push   %esp
  9e:	41                   	inc    %ecx
  9f:	00 73 79             	add    %dh,0x79(%ebx)
  a2:	73 5f                	jae    103 <deregister_tm_clones-0x7cfd>
  a4:	67 65 74 5f          	addr16 gs je 107 <deregister_tm_clones-0x7cf9>
  a8:	73 63                	jae    10d <deregister_tm_clones-0x7cf3>
  aa:	61                   	popa   
  ab:	6e                   	outsb  %ds:(%esi),(%dx)
  ac:	63 6f 64             	arpl   %bp,0x64(%edi)
  af:	65 00 47 4e          	add    %al,%gs:0x4e(%edi)
  b3:	55                   	push   %ebp
  b4:	20 43 2b             	and    %al,0x2b(%ebx)
  b7:	2b 31                	sub    (%ecx),%esi
  b9:	34 20                	xor    $0x20,%al
  bb:	37                   	aaa    
  bc:	2e 33 2e             	xor    %cs:(%esi),%ebp
  bf:	30 20                	xor    %ah,(%eax)
  c1:	2d 6d 31 36 20       	sub    $0x2036316d,%eax
  c6:	2d 6d 61 72 63       	sub    $0x6372616d,%eax
  cb:	68 3d 69 33 38       	push   $0x3833693d
  d0:	36 20 2d 6d 70 72 65 	and    %ch,%ss:0x6572706d
  d7:	66 65 72 72          	data16 gs jb 14d <deregister_tm_clones-0x7cb3>
  db:	65 64 2d 73 74 61 63 	gs fs sub $0x63617473,%eax
  e2:	6b 2d 62 6f 75 6e 64 	imul   $0x64,0x6e756f62,%ebp
  e9:	61                   	popa   
  ea:	72 79                	jb     165 <deregister_tm_clones-0x7c9b>
  ec:	3d 32 20 2d 67       	cmp    $0x672d2032,%eax
  f1:	20 2d 4f 73 20 2d    	and    %ch,0x2d20734f
  f7:	73 74                	jae    16d <deregister_tm_clones-0x7c93>
  f9:	64 3d 63 2b 2b 31    	fs cmp $0x312b2b63,%eax
  ff:	7a 20                	jp     121 <deregister_tm_clones-0x7cdf>
 101:	2d 66 66 72 65       	sub    $0x65726666,%eax
 106:	65 73 74             	gs jae 17d <deregister_tm_clones-0x7c83>
 109:	61                   	popa   
 10a:	6e                   	outsb  %ds:(%esi),(%dx)
 10b:	64 69 6e 67 20 2d 66 	imul   $0x6e662d20,%fs:0x67(%esi),%ebp
 112:	6e 
 113:	6f                   	outsl  %ds:(%esi),(%dx)
 114:	2d 62 75 69 6c       	sub    $0x6c697562,%eax
 119:	74 69                	je     184 <deregister_tm_clones-0x7c7c>
 11b:	6e                   	outsb  %ds:(%esi),(%dx)
 11c:	20 2d 66 6e 6f 2d    	and    %ch,0x2d6f6e66
 122:	6f                   	outsl  %ds:(%esi),(%dx)
 123:	6d                   	insl   (%dx),%es:(%edi)
 124:	69 74 2d 66 72 61 6d 	imul   $0x656d6172,0x66(%ebp,%ebp,1),%esi
 12b:	65 
 12c:	2d 70 6f 69 6e       	sub    $0x6e696f70,%eax
 131:	74 65                	je     198 <deregister_tm_clones-0x7c68>
 133:	72 20                	jb     155 <deregister_tm_clones-0x7cab>
 135:	2d 66 6e 6f 2d       	sub    $0x2d6f6e66,%eax
 13a:	74 72                	je     1ae <deregister_tm_clones-0x7c52>
 13c:	65 65 2d 63 68 20 2d 	gs gs sub $0x2d206863,%eax
 143:	66 6e                	data16 outsb %ds:(%esi),(%dx)
 145:	6f                   	outsl  %ds:(%esi),(%dx)
 146:	2d 73 74 61 63       	sub    $0x63617473,%eax
 14b:	6b 2d 70 72 6f 74 65 	imul   $0x65,0x746f7270,%ebp
 152:	63 74 6f 72          	arpl   %si,0x72(%edi,%ebp,2)
 156:	00 73 79             	add    %dh,0x79(%ebx)
 159:	73 5f                	jae    1ba <deregister_tm_clones-0x7c46>
 15b:	62 69 6f             	bound  %ebp,0x6f(%ecx)
 15e:	73 5f                	jae    1bf <deregister_tm_clones-0x7c41>
 160:	70 72                	jo     1d4 <deregister_tm_clones-0x7c2c>
 162:	69 6e 74 5f 69 6e 74 	imul   $0x746e695f,0x74(%esi),%ebp
 169:	00 56 47             	add    %dl,0x47(%esi)
 16c:	41                   	inc    %ecx
 16d:	5f                   	pop    %edi
 16e:	4d                   	dec    %ebp
 16f:	41                   	inc    %ecx
 170:	47                   	inc    %edi
 171:	45                   	inc    %ebp
 172:	4e                   	dec    %esi
 173:	54                   	push   %esp
 174:	41                   	inc    %ecx
 175:	00 56 47             	add    %dl,0x47(%esi)
 178:	41                   	inc    %ecx
 179:	5f                   	pop    %edi
 17a:	42                   	inc    %edx
 17b:	4c                   	dec    %esp
 17c:	41                   	inc    %ecx
 17d:	43                   	inc    %ebx
 17e:	4b                   	dec    %ebx
 17f:	00 5f 5f             	add    %bl,0x5f(%edi)
 182:	66 6c                	data16 insb (%dx),%es:(%edi)
 184:	6f                   	outsl  %ds:(%esi),(%dx)
 185:	61                   	popa   
 186:	74 31                	je     1b9 <deregister_tm_clones-0x7c47>
 188:	32 38                	xor    (%eax),%bh
 18a:	00 6c 6f 6e          	add    %ch,0x6e(%edi,%ebp,2)
 18e:	67 20 6c 6f          	and    %ch,0x6f(%si)
 192:	6e                   	outsb  %ds:(%esi),(%dx)
 193:	67 20 75 6e          	and    %dh,0x6e(%di)
 197:	73 69                	jae    202 <deregister_tm_clones-0x7bfe>
 199:	67 6e                	outsb  %ds:(%si),(%dx)
 19b:	65 64 20 69 6e       	gs and %ch,%fs:0x6e(%ecx)
 1a0:	74 00                	je     1a2 <deregister_tm_clones-0x7c5e>
 1a2:	56                   	push   %esi
 1a3:	47                   	inc    %edi
 1a4:	41                   	inc    %ecx
 1a5:	5f                   	pop    %edi
 1a6:	42                   	inc    %edx
 1a7:	52                   	push   %edx
 1a8:	49                   	dec    %ecx
 1a9:	47                   	inc    %edi
 1aa:	48                   	dec    %eax
 1ab:	54                   	push   %esp
 1ac:	5f                   	pop    %edi
 1ad:	52                   	push   %edx
 1ae:	45                   	inc    %ebp
 1af:	44                   	inc    %esp
 1b0:	00 56 47             	add    %dl,0x47(%esi)
 1b3:	41                   	inc    %ecx
 1b4:	5f                   	pop    %edi
 1b5:	42                   	inc    %edx
 1b6:	52                   	push   %edx
 1b7:	49                   	dec    %ecx
 1b8:	47                   	inc    %edi
 1b9:	48                   	dec    %eax
 1ba:	54                   	push   %esp
 1bb:	5f                   	pop    %edi
 1bc:	47                   	inc    %edi
 1bd:	52                   	push   %edx
 1be:	45                   	inc    %ebp
 1bf:	45                   	inc    %ebp
 1c0:	4e                   	dec    %esi
 1c1:	00 56 47             	add    %dl,0x47(%esi)
 1c4:	41                   	inc    %ecx
 1c5:	5f                   	pop    %edi
 1c6:	42                   	inc    %edx
 1c7:	52                   	push   %edx
 1c8:	49                   	dec    %ecx
 1c9:	47                   	inc    %edi
 1ca:	48                   	dec    %eax
 1cb:	54                   	push   %esp
 1cc:	5f                   	pop    %edi
 1cd:	57                   	push   %edi
 1ce:	48                   	dec    %eax
 1cf:	49                   	dec    %ecx
 1d0:	54                   	push   %esp
 1d1:	45                   	inc    %ebp
 1d2:	00 73 79             	add    %dh,0x79(%ebx)
 1d5:	73 5f                	jae    236 <deregister_tm_clones-0x7bca>
 1d7:	62 69 6f             	bound  %ebp,0x6f(%ecx)
 1da:	73 5f                	jae    23b <deregister_tm_clones-0x7bc5>
 1dc:	63 6c 65 61          	arpl   %bp,0x61(%ebp,%eiz,2)
 1e0:	72 5f                	jb     241 <deregister_tm_clones-0x7bbf>
 1e2:	73 63                	jae    247 <deregister_tm_clones-0x7bb9>
 1e4:	72 65                	jb     24b <deregister_tm_clones-0x7bb5>
 1e6:	65 6e                	outsb  %gs:(%esi),(%dx)
 1e8:	00 6c 6f 6e          	add    %ch,0x6e(%edi,%ebp,2)
 1ec:	67 20 6c 6f          	and    %ch,0x6f(%si)
 1f0:	6e                   	outsb  %ds:(%esi),(%dx)
 1f1:	67 20 69 6e          	and    %ch,0x6e(%bx,%di)
 1f5:	74 00                	je     1f7 <deregister_tm_clones-0x7c09>
 1f7:	56                   	push   %esi
 1f8:	47                   	inc    %edi
 1f9:	41                   	inc    %ecx
 1fa:	5f                   	pop    %edi
 1fb:	52                   	push   %edx
 1fc:	45                   	inc    %ebp
 1fd:	44                   	inc    %esp
 1fe:	00 6b 65             	add    %ch,0x65(%ebx)
 201:	72 6e                	jb     271 <deregister_tm_clones-0x7b8f>
 203:	65 6c                	gs insb (%dx),%es:(%edi)
 205:	2f                   	das    
 206:	6b 65 72 6e          	imul   $0x6e,0x72(%ebp),%esp
 20a:	65 6c                	gs insb (%dx),%es:(%edi)
 20c:	5f                   	pop    %edi
 20d:	6d                   	insl   (%dx),%es:(%edi)
 20e:	61                   	popa   
 20f:	69 6e 2e 63 70 70 00 	imul   $0x707063,0x2e(%esi),%ebp
 216:	56                   	push   %esi
 217:	47                   	inc    %edi
 218:	41                   	inc    %ecx
 219:	5f                   	pop    %edi
 21a:	47                   	inc    %edi
 21b:	52                   	push   %edx
 21c:	41                   	inc    %ecx
 21d:	59                   	pop    %ecx
 21e:	00 73 79             	add    %dh,0x79(%ebx)
 221:	73 5f                	jae    282 <deregister_tm_clones-0x7b7e>
 223:	62 69 6f             	bound  %ebp,0x6f(%ecx)
 226:	73 5f                	jae    287 <deregister_tm_clones-0x7b79>
 228:	70 72                	jo     29c <deregister_tm_clones-0x7b64>
 22a:	69 6e 74 5f 73 74 72 	imul   $0x7274735f,0x74(%esi),%ebp
 231:	69 6e 67 00 73 68 6f 	imul   $0x6f687300,0x67(%esi),%ebp
 238:	72 74                	jb     2ae <deregister_tm_clones-0x7b52>
 23a:	20 69 6e             	and    %ch,0x6e(%ecx)
 23d:	74 00                	je     23f <deregister_tm_clones-0x7bc1>
 23f:	6c                   	insb   (%dx),%es:(%edi)
 240:	6f                   	outsl  %ds:(%esi),(%dx)
 241:	6e                   	outsb  %ds:(%esi),(%dx)
 242:	67 20 64 6f          	and    %ah,0x6f(%si)
 246:	75 62                	jne    2aa <deregister_tm_clones-0x7b56>
 248:	6c                   	insb   (%dx),%es:(%edi)
 249:	65 00 6b 65          	add    %ch,%gs:0x65(%ebx)
 24d:	72 6e                	jb     2bd <deregister_tm_clones-0x7b43>
 24f:	65 6c                	gs insb (%dx),%es:(%edi)
 251:	5f                   	pop    %edi
 252:	6d                   	insl   (%dx),%es:(%edi)
 253:	61                   	popa   
 254:	69 6e 00 2f 55 73 65 	imul   $0x6573552f,0x0(%esi),%ebp
 25b:	72 73                	jb     2d0 <deregister_tm_clones-0x7b30>
 25d:	2f                   	das    
 25e:	6c                   	insb   (%dx),%es:(%edi)
 25f:	69 78 69 6e 72 75 69 	imul   $0x6975726e,0x69(%eax),%edi
 266:	2f                   	das    
 267:	6f                   	outsl  %ds:(%esi),(%dx)
 268:	6e                   	outsb  %ds:(%esi),(%dx)
 269:	65 64 72 69          	gs fs jb 2d6 <deregister_tm_clones-0x7b2a>
 26d:	76 65                	jbe    2d4 <deregister_tm_clones-0x7b2c>
 26f:	2f                   	das    
 270:	44                   	inc    %esp
 271:	6f                   	outsl  %ds:(%esi),(%dx)
 272:	63 75 6d             	arpl   %si,0x6d(%ebp)
 275:	65 6e                	outsb  %gs:(%esi),(%dx)
 277:	74 73                	je     2ec <deregister_tm_clones-0x7b14>
 279:	2f                   	das    
 27a:	e5 a4                	in     $0xa4,%eax
 27c:	a7                   	cmpsl  %es:(%edi),%ds:(%esi)
 27d:	e5 ad                	in     $0xad,%eax
 27f:	a6                   	cmpsb  %es:(%edi),%ds:(%esi)
 280:	e8 af be e7 a8       	call   a8e7c134 <__TMC_END__+0xa8e73e6c>
 285:	8b 2f                	mov    (%edi),%ebp
 287:	32 30                	xor    (%eax),%dh
 289:	31 38                	xor    %edi,(%eax)
 28b:	e6 93                	out    %al,$0x93
 28d:	8d                   	(bad)  
 28e:	e4 bd                	in     $0xbd,%al
 290:	9c                   	pushf  
 291:	e7 b3                	out    %eax,$0xb3
 293:	bb e7 bb 9f e5       	mov    $0xe59fbbe7,%ebx
 298:	ae                   	scas   %es:(%edi),%al
 299:	9e                   	sahf   
 29a:	e9 aa 8c 2f 6f       	jmp    6f2f8f49 <__TMC_END__+0x6f2f0c81>
 29f:	73 5f                	jae    300 <deregister_tm_clones-0x7b00>
 2a1:	6c                   	insb   (%dx),%es:(%edi)
 2a2:	61                   	popa   
 2a3:	62 33                	bound  %esi,(%ebx)
 2a5:	2f                   	das    
 2a6:	74 65                	je     30d <deregister_tm_clones-0x7af3>
 2a8:	73 74                	jae    31e <deregister_tm_clones-0x7ae2>
 2aa:	00 56 47             	add    %dl,0x47(%esi)
 2ad:	41                   	inc    %ecx
 2ae:	5f                   	pop    %edi
 2af:	42                   	inc    %edx
 2b0:	52                   	push   %edx
 2b1:	49                   	dec    %ecx
 2b2:	47                   	inc    %edi
 2b3:	48                   	dec    %eax
 2b4:	54                   	push   %esp
 2b5:	5f                   	pop    %edi
 2b6:	42                   	inc    %edx
 2b7:	4c                   	dec    %esp
 2b8:	55                   	push   %ebp
 2b9:	45                   	inc    %ebp
 2ba:	00 5f 46             	add    %bl,0x46(%edi)
 2bd:	6c                   	insb   (%dx),%es:(%edi)
 2be:	6f                   	outsl  %ds:(%esi),(%dx)
 2bf:	61                   	popa   
 2c0:	74 31                	je     2f3 <deregister_tm_clones-0x7b0d>
 2c2:	32 38                	xor    (%eax),%bh
 2c4:	00 70 56             	add    %dh,0x56(%eax)
 2c7:	52                   	push   %edx
 2c8:	41                   	inc    %ecx
 2c9:	4d                   	dec    %ebp
 2ca:	00 70 6f             	add    %dh,0x6f(%eax)
 2cd:	77 65                	ja     334 <deregister_tm_clones-0x7acc>
 2cf:	72 00                	jb     2d1 <deregister_tm_clones-0x7b2f>
 2d1:	62 61 73             	bound  %esp,0x73(%ecx)
 2d4:	69 63 5f 6c 69 62 2f 	imul   $0x2f62696c,0x5f(%ebx),%esp
 2db:	63 5f 6c             	arpl   %bx,0x6c(%edi)
 2de:	69 62 2e 63 00 73 79 	imul   $0x79730063,0x2e(%edx),%esp
 2e5:	73 5f                	jae    346 <deregister_tm_clones-0x7aba>
 2e7:	62 69 6f             	bound  %ebp,0x6f(%ecx)
 2ea:	73 5f                	jae    34b <deregister_tm_clones-0x7ab5>
 2ec:	70 75                	jo     363 <deregister_tm_clones-0x7a9d>
 2ee:	74 63                	je     353 <deregister_tm_clones-0x7aad>
 2f0:	68 61 72 00 47       	push   $0x47007261
 2f5:	4e                   	dec    %esi
 2f6:	55                   	push   %ebp
 2f7:	20 43 31             	and    %al,0x31(%ebx)
 2fa:	31 20                	xor    %esp,(%eax)
 2fc:	37                   	aaa    
 2fd:	2e 33 2e             	xor    %cs:(%esi),%ebp
 300:	30 20                	xor    %ah,(%eax)
 302:	2d 6d 31 36 20       	sub    $0x2036316d,%eax
 307:	2d 6d 61 72 63       	sub    $0x6372616d,%eax
 30c:	68 3d 69 33 38       	push   $0x3833693d
 311:	36 20 2d 6d 70 72 65 	and    %ch,%ss:0x6572706d
 318:	66 65 72 72          	data16 gs jb 38e <deregister_tm_clones-0x7a72>
 31c:	65 64 2d 73 74 61 63 	gs fs sub $0x63617473,%eax
 323:	6b 2d 62 6f 75 6e 64 	imul   $0x64,0x6e756f62,%ebp
 32a:	61                   	popa   
 32b:	72 79                	jb     3a6 <deregister_tm_clones-0x7a5a>
 32d:	3d 32 20 2d 67       	cmp    $0x672d2032,%eax
 332:	20 2d 4f 73 20 2d    	and    %ch,0x2d20734f
 338:	73 74                	jae    3ae <deregister_tm_clones-0x7a52>
 33a:	64 3d 67 6e 75 31    	fs cmp $0x31756e67,%eax
 340:	31 20                	xor    %esp,(%eax)
 342:	2d 66 66 72 65       	sub    $0x65726666,%eax
 347:	65 73 74             	gs jae 3be <deregister_tm_clones-0x7a42>
 34a:	61                   	popa   
 34b:	6e                   	outsb  %ds:(%esi),(%dx)
 34c:	64 69 6e 67 20 2d 66 	imul   $0x6e662d20,%fs:0x67(%esi),%ebp
 353:	6e 
 354:	6f                   	outsl  %ds:(%esi),(%dx)
 355:	2d 62 75 69 6c       	sub    $0x6c697562,%eax
 35a:	74 69                	je     3c5 <deregister_tm_clones-0x7a3b>
 35c:	6e                   	outsb  %ds:(%esi),(%dx)
 35d:	20 2d 66 6e 6f 2d    	and    %ch,0x2d6f6e66
 363:	6f                   	outsl  %ds:(%esi),(%dx)
 364:	6d                   	insl   (%dx),%es:(%edi)
 365:	69 74 2d 66 72 61 6d 	imul   $0x656d6172,0x66(%ebp,%ebp,1),%esi
 36c:	65 
 36d:	2d 70 6f 69 6e       	sub    $0x6e696f70,%eax
 372:	74 65                	je     3d9 <deregister_tm_clones-0x7a27>
 374:	72 20                	jb     396 <deregister_tm_clones-0x7a6a>
 376:	2d 66 6e 6f 2d       	sub    $0x2d6f6e66,%eax
 37b:	74 72                	je     3ef <deregister_tm_clones-0x7a11>
 37d:	65 65 2d 63 68 20 2d 	gs gs sub $0x2d206863,%eax
 384:	66 6e                	data16 outsb %ds:(%esi),(%dx)
 386:	6f                   	outsl  %ds:(%esi),(%dx)
 387:	2d 73 74 61 63       	sub    $0x63617473,%eax
 38c:	6b 2d 70 72 6f 74 65 	imul   $0x65,0x746f7270,%ebp
 393:	63 74 6f 72          	arpl   %si,0x72(%edi,%ebp,2)
 397:	00 63 6f             	add    %ah,0x6f(%ebx)
 39a:	6c                   	insb   (%dx),%es:(%edi)
 39b:	6f                   	outsl  %ds:(%esi),(%dx)
 39c:	72 00                	jb     39e <deregister_tm_clones-0x7a62>
 39e:	75 69                	jne    409 <deregister_tm_clones-0x79f7>
 3a0:	6e                   	outsb  %ds:(%esi),(%dx)
 3a1:	74 38                	je     3db <deregister_tm_clones-0x7a25>
 3a3:	5f                   	pop    %edi
 3a4:	74 00                	je     3a6 <deregister_tm_clones-0x7a5a>
 3a6:	6e                   	outsb  %ds:(%esi),(%dx)
 3a7:	75 6d                	jne    416 <deregister_tm_clones-0x79ea>
 3a9:	5f                   	pop    %edi
 3aa:	00 70 6f             	add    %dh,0x6f(%eax)
 3ad:	72 74                	jb     423 <deregister_tm_clones-0x79dd>
 3af:	00 75 69             	add    %dh,0x69(%ebp)
 3b2:	6e                   	outsb  %ds:(%esi),(%dx)
 3b3:	74 31                	je     3e6 <deregister_tm_clones-0x7a1a>
 3b5:	36 5f                	ss pop %edi
 3b7:	74 00                	je     3b9 <deregister_tm_clones-0x7a47>
 3b9:	73 79                	jae    434 <deregister_tm_clones-0x79cc>
 3bb:	73 5f                	jae    41c <deregister_tm_clones-0x79e4>
 3bd:	70 75                	jo     434 <deregister_tm_clones-0x79cc>
 3bf:	74 63                	je     424 <deregister_tm_clones-0x79dc>
 3c1:	68 61 72 00 73       	push   $0x73007261
 3c6:	79 73                	jns    43b <deregister_tm_clones-0x79c5>
 3c8:	5f                   	pop    %edi
 3c9:	69                   	.byte 0x69
 3ca:	6e                   	outsb  %ds:(%esi),(%dx)
 3cb:	62 00                	bound  %eax,(%eax)
