
build/kernel/kernel.bin:     file format binary


Disassembly of section .data:

00007e00 <.data>:
    7e00:	b8 3c 82 00 00       	mov    eax,0x823c
    7e05:	3d 3c 82 00 00       	cmp    eax,0x823c
    7e0a:	74 1c                	je     0x7e28
    7e0c:	b8 00 00 00 00       	mov    eax,0x0
    7e11:	85 c0                	test   eax,eax
    7e13:	74 13                	je     0x7e28
    7e15:	55                   	push   ebp
    7e16:	89 e5                	mov    ebp,esp
    7e18:	83 ec 14             	sub    esp,0x14
    7e1b:	68 3c 82 00 00       	push   0x823c
    7e20:	ff d0                	call   eax
    7e22:	83 c4 10             	add    esp,0x10
    7e25:	c9                   	leave  
    7e26:	c3                   	ret    
    7e27:	90                   	nop
    7e28:	c3                   	ret    
    7e29:	8d 76 00             	lea    esi,[esi+0x0]
    7e2c:	b8 3c 82 00 00       	mov    eax,0x823c
    7e31:	2d 3c 82 00 00       	sub    eax,0x823c
    7e36:	c1 f8 02             	sar    eax,0x2
    7e39:	89 c2                	mov    edx,eax
    7e3b:	c1 ea 1f             	shr    edx,0x1f
    7e3e:	01 d0                	add    eax,edx
    7e40:	d1 f8                	sar    eax,1
    7e42:	74 1c                	je     0x7e60
    7e44:	ba 00 00 00 00       	mov    edx,0x0
    7e49:	85 d2                	test   edx,edx
    7e4b:	74 13                	je     0x7e60
    7e4d:	55                   	push   ebp
    7e4e:	89 e5                	mov    ebp,esp
    7e50:	83 ec 10             	sub    esp,0x10
    7e53:	50                   	push   eax
    7e54:	68 3c 82 00 00       	push   0x823c
    7e59:	ff d2                	call   edx
    7e5b:	83 c4 10             	add    esp,0x10
    7e5e:	c9                   	leave  
    7e5f:	c3                   	ret    
    7e60:	c3                   	ret    
    7e61:	8d 76 00             	lea    esi,[esi+0x0]
    7e64:	80 3d f4 81 00 00 00 	cmp    BYTE PTR ds:0x81f4,0x0
    7e6b:	75 63                	jne    0x7ed0
    7e6d:	55                   	push   ebp
    7e6e:	89 e5                	mov    ebp,esp
    7e70:	56                   	push   esi
    7e71:	53                   	push   ebx
    7e72:	bb 38 82 00 00       	mov    ebx,0x8238
    7e77:	81 eb 34 82 00 00    	sub    ebx,0x8234
    7e7d:	c1 fb 02             	sar    ebx,0x2
    7e80:	4b                   	dec    ebx
    7e81:	be 34 82 00 00       	mov    esi,0x8234
    7e86:	a1 f8 81 00 00       	mov    eax,ds:0x81f8
    7e8b:	39 d8                	cmp    eax,ebx
    7e8d:	73 13                	jae    0x7ea2
    7e8f:	90                   	nop
    7e90:	40                   	inc    eax
    7e91:	a3 f8 81 00 00       	mov    ds:0x81f8,eax
    7e96:	ff 14 86             	call   DWORD PTR [esi+eax*4]
    7e99:	a1 f8 81 00 00       	mov    eax,ds:0x81f8
    7e9e:	39 d8                	cmp    eax,ebx
    7ea0:	72 ee                	jb     0x7e90
    7ea2:	e8 59 ff ff ff       	call   0x7e00
    7ea7:	b8 00 00 00 00       	mov    eax,0x0
    7eac:	85 c0                	test   eax,eax
    7eae:	74 10                	je     0x7ec0
    7eb0:	83 ec 0c             	sub    esp,0xc
    7eb3:	68 f4 80 00 00       	push   0x80f4
    7eb8:	e8 43 81 ff ff       	call   0x0
    7ebd:	83 c4 10             	add    esp,0x10
    7ec0:	c6 05 f4 81 00 00 01 	mov    BYTE PTR ds:0x81f4,0x1
    7ec7:	8d 65 f8             	lea    esp,[ebp-0x8]
    7eca:	5b                   	pop    ebx
    7ecb:	5e                   	pop    esi
    7ecc:	5d                   	pop    ebp
    7ecd:	c3                   	ret    
    7ece:	66 90                	xchg   ax,ax
    7ed0:	c3                   	ret    
    7ed1:	8d 76 00             	lea    esi,[esi+0x0]
    7ed4:	b8 00 00 00 00       	mov    eax,0x0
    7ed9:	85 c0                	test   eax,eax
    7edb:	74 1f                	je     0x7efc
    7edd:	55                   	push   ebp
    7ede:	89 e5                	mov    ebp,esp
    7ee0:	83 ec 10             	sub    esp,0x10
    7ee3:	68 fc 81 00 00       	push   0x81fc
    7ee8:	68 f4 80 00 00       	push   0x80f4
    7eed:	e8 0e 81 ff ff       	call   0x0
    7ef2:	83 c4 10             	add    esp,0x10
    7ef5:	c9                   	leave  
    7ef6:	e9 31 ff ff ff       	jmp    0x7e2c
    7efb:	90                   	nop
    7efc:	e9 2b ff ff ff       	jmp    0x7e2c
    7f01:	66 90                	xchg   ax,ax
    7f03:	66 90                	xchg   ax,ax
    7f05:	66 90                	xchg   ax,ax
    7f07:	66 90                	xchg   ax,ax
    7f09:	66 90                	xchg   ax,ax
    7f0b:	66 90                	xchg   ax,ax
    7f0d:	66 90                	xchg   ax,ax
    7f0f:	90                   	nop
    7f10:	e8 c4 01 00 00       	call   0x80d9
    7f15:	e8 03 00 00 00       	call   0x7f1d
    7f1a:	fa                   	cli    
    7f1b:	eb fe                	jmp    0x7f1b
    7f1d:	55                   	push   ebp
    7f1e:	89 e5                	mov    ebp,esp
    7f20:	57                   	push   edi
    7f21:	56                   	push   esi
    7f22:	53                   	push   ebx
    7f23:	83 ec 1c             	sub    esp,0x1c
    7f26:	e8 95 00 00 00       	call   0x7fc0
    7f2b:	51                   	push   ecx
    7f2c:	68 00 01 00 00       	push   0x100
    7f31:	6a 07                	push   0x7
    7f33:	68 ce 07 00 00       	push   0x7ce
    7f38:	e8 9b 00 00 00       	call   0x7fd8
    7f3d:	83 c4 0c             	add    esp,0xc
    7f40:	68 00 02 00 00       	push   0x200
    7f45:	6a 07                	push   0x7
    7f47:	68 6d 1a 00 00       	push   0x1a6d
    7f4c:	e8 87 00 00 00       	call   0x7fd8
    7f51:	8d 7d db             	lea    edi,[ebp-0x25]
    7f54:	be 1c 82 00 00       	mov    esi,0x821c
    7f59:	b9 0d 00 00 00       	mov    ecx,0xd
    7f5e:	f3 a4                	rep movs BYTE PTR es:[edi],BYTE PTR ds:[esi]
    7f60:	83 c4 10             	add    esp,0x10
    7f63:	6a 00                	push   0x0
    7f65:	6a 0e                	push   0xe
    7f67:	6a 0c                	push   0xc
    7f69:	8d 45 db             	lea    eax,[ebp-0x25]
    7f6c:	50                   	push   eax
    7f6d:	e8 2e 00 00 00       	call   0x7fa0
    7f72:	83 c4 10             	add    esp,0x10
    7f75:	bb 00 07 00 00       	mov    ebx,0x700
    7f7a:	e8 25 01 00 00       	call   0x80a4
    7f7f:	52                   	push   edx
    7f80:	89 da                	mov    edx,ebx
    7f82:	83 ca 05             	or     edx,0x5
    7f85:	52                   	push   edx
    7f86:	6a 07                	push   0x7
    7f88:	0f be c0             	movsx  eax,al
    7f8b:	50                   	push   eax
    7f8c:	e8 47 00 00 00       	call   0x7fd8
    7f91:	81 c3 00 01 00 00    	add    ebx,0x100
    7f97:	83 c4 10             	add    esp,0x10
    7f9a:	eb de                	jmp    0x7f7a
    7f9c:	66 90                	xchg   ax,ax
    7f9e:	66 90                	xchg   ax,ax
    7fa0:	55                   	push   ebp
    7fa1:	89 e5                	mov    ebp,esp
    7fa3:	8b 4e 0a             	mov    ecx,DWORD PTR [esi+0xa]
    7fa6:	8b 5e 0e             	mov    ebx,DWORD PTR [esi+0xe]
    7fa9:	b7 00                	mov    bh,0x0
    7fab:	8b 56 12             	mov    edx,DWORD PTR [esi+0x12]
    7fae:	8c d8                	mov    eax,ds
    7fb0:	8e c0                	mov    es,eax
    7fb2:	b8 01 13 8e ed       	mov    eax,0xed8e1301
    7fb7:	8b 6e 06             	mov    ebp,DWORD PTR [esi+0x6]
    7fba:	cd 10                	int    0x10
    7fbc:	8c ed                	mov    ebp,gs
    7fbe:	5d                   	pop    ebp
    7fbf:	c3                   	ret    
    7fc0:	60                   	pusha  
    7fc1:	b4 06                	mov    ah,0x6
    7fc3:	b0 00                	mov    al,0x0
    7fc5:	b7 07                	mov    bh,0x7
    7fc7:	b5 00                	mov    ch,0x0
    7fc9:	b1 00                	mov    cl,0x0
    7fcb:	b6 18                	mov    dh,0x18
    7fcd:	b2 4f                	mov    dl,0x4f
    7fcf:	cd 10                	int    0x10
    7fd1:	61                   	popa   
    7fd2:	c3                   	ret    
    7fd3:	b4 00                	mov    ah,0x0
    7fd5:	cd 16                	int    0x16
    7fd7:	c3                   	ret    
    7fd8:	55                   	push   ebp
    7fd9:	89 e5                	mov    ebp,esp
    7fdb:	57                   	push   edi
    7fdc:	56                   	push   esi
    7fdd:	53                   	push   ebx
    7fde:	83 ec 1c             	sub    esp,0x1c
    7fe1:	8b 45 08             	mov    eax,DWORD PTR [ebp+0x8]
    7fe4:	b9 01 00 00 00       	mov    ecx,0x1
    7fe9:	bb 0a 00 00 00       	mov    ebx,0xa
    7fee:	99                   	cdq    
    7fef:	f7 fb                	idiv   ebx
    7ff1:	8d 51 01             	lea    edx,[ecx+0x1]
    7ff4:	85 c0                	test   eax,eax
    7ff6:	74 04                	je     0x7ffc
    7ff8:	89 d1                	mov    ecx,edx
    7ffa:	eb f2                	jmp    0x7fee
    7ffc:	8d 41 10             	lea    eax,[ecx+0x10]
    7fff:	83 e0 f0             	and    eax,0xfffffff0
    8002:	29 c4                	sub    esp,eax
    8004:	89 e7                	mov    edi,esp
    8006:	8d 1c 0c             	lea    ebx,[esp+ecx*1]
    8009:	c7 45 e4 01 00 00 00 	mov    DWORD PTR [ebp-0x1c],0x1
    8010:	8b 45 08             	mov    eax,DWORD PTR [ebp+0x8]
    8013:	99                   	cdq    
    8014:	f7 7d e4             	idiv   DWORD PTR [ebp-0x1c]
    8017:	be 0a 00 00 00       	mov    esi,0xa
    801c:	99                   	cdq    
    801d:	f7 fe                	idiv   esi
    801f:	83 c2 30             	add    edx,0x30
    8022:	88 53 ff             	mov    BYTE PTR [ebx-0x1],dl
    8025:	6b 45 e4 0a          	imul   eax,DWORD PTR [ebp-0x1c],0xa
    8029:	89 45 e4             	mov    DWORD PTR [ebp-0x1c],eax
    802c:	4b                   	dec    ebx
    802d:	39 df                	cmp    edi,ebx
    802f:	75 df                	jne    0x8010
    8031:	c6 04 0f 00          	mov    BYTE PTR [edi+ecx*1],0x0
    8035:	ff 75 10             	push   DWORD PTR [ebp+0x10]
    8038:	ff 75 0c             	push   DWORD PTR [ebp+0xc]
    803b:	51                   	push   ecx
    803c:	57                   	push   edi
    803d:	e8 5e ff ff ff       	call   0x7fa0
    8042:	83 c4 10             	add    esp,0x10
    8045:	8d 65 f4             	lea    esp,[ebp-0xc]
    8048:	5b                   	pop    ebx
    8049:	5e                   	pop    esi
    804a:	5f                   	pop    edi
    804b:	5d                   	pop    ebp
    804c:	c3                   	ret    
    804d:	55                   	push   ebp
    804e:	89 e5                	mov    ebp,esp
    8050:	6b 45 14 50          	imul   eax,DWORD PTR [ebp+0x14],0x50
    8054:	03 45 10             	add    eax,DWORD PTR [ebp+0x10]
    8057:	01 c0                	add    eax,eax
    8059:	8b 4d 0c             	mov    ecx,DWORD PTR [ebp+0xc]
    805c:	c1 e1 08             	shl    ecx,0x8
    805f:	66 0f be 55 08       	movsx  dx,BYTE PTR [ebp+0x8]
    8064:	09 ca                	or     edx,ecx
    8066:	66 89 90 00 80 0b 00 	mov    WORD PTR [eax+0xb8000],dx
    806d:	5d                   	pop    ebp
    806e:	c3                   	ret    
    806f:	55                   	push   ebp
    8070:	89 e5                	mov    ebp,esp
    8072:	83 ec 18             	sub    esp,0x18
    8075:	8b 45 08             	mov    eax,DWORD PTR [ebp+0x8]
    8078:	88 45 f4             	mov    BYTE PTR [ebp-0xc],al
    807b:	8b 45 10             	mov    eax,DWORD PTR [ebp+0x10]
    807e:	c1 e0 08             	shl    eax,0x8
    8081:	0f b6 55 14          	movzx  edx,BYTE PTR [ebp+0x14]
    8085:	09 d0                	or     eax,edx
    8087:	50                   	push   eax
    8088:	ff 75 0c             	push   DWORD PTR [ebp+0xc]
    808b:	6a 01                	push   0x1
    808d:	8d 45 f4             	lea    eax,[ebp-0xc]
    8090:	50                   	push   eax
    8091:	e8 0a ff ff ff       	call   0x7fa0
    8096:	83 c4 10             	add    esp,0x10
    8099:	c9                   	leave  
    809a:	c3                   	ret    
    809b:	55                   	push   ebp
    809c:	89 e5                	mov    ebp,esp
    809e:	8b 55 08             	mov    edx,DWORD PTR [ebp+0x8]
    80a1:	ec                   	in     al,dx
    80a2:	5d                   	pop    ebp
    80a3:	c3                   	ret    
    80a4:	55                   	push   ebp
    80a5:	89 e5                	mov    ebp,esp
    80a7:	e4 64                	in     al,0x64
    80a9:	a8 01                	test   al,0x1
    80ab:	74 fa                	je     0x80a7
    80ad:	e4 60                	in     al,0x60
    80af:	5d                   	pop    ebp
    80b0:	c3                   	ret    
    80b1:	66 90                	xchg   ax,ax
    80b3:	90                   	nop
    80b4:	a1 2c 82 00 00       	mov    eax,ds:0x822c
    80b9:	83 f8 ff             	cmp    eax,0xffffffff
    80bc:	74 1a                	je     0x80d8
    80be:	55                   	push   ebp
    80bf:	89 e5                	mov    ebp,esp
    80c1:	53                   	push   ebx
    80c2:	52                   	push   edx
    80c3:	bb 2c 82 00 00       	mov    ebx,0x822c
    80c8:	ff d0                	call   eax
    80ca:	83 eb 04             	sub    ebx,0x4
    80cd:	8b 03                	mov    eax,DWORD PTR [ebx]
    80cf:	83 f8 ff             	cmp    eax,0xffffffff
    80d2:	75 f4                	jne    0x80c8
    80d4:	58                   	pop    eax
    80d5:	5b                   	pop    ebx
    80d6:	5d                   	pop    ebp
    80d7:	c3                   	ret    
    80d8:	c3                   	ret    
    80d9:	55                   	push   ebp
    80da:	89 e5                	mov    ebp,esp
    80dc:	e8 f3 fd ff ff       	call   0x7ed4
    80e1:	e8 ce ff ff ff       	call   0x80b4
    80e6:	5d                   	pop    ebp
    80e7:	c3                   	ret    
    80e8:	55                   	push   ebp
    80e9:	89 e5                	mov    ebp,esp
    80eb:	e8 74 fd ff ff       	call   0x7e64
    80f0:	5d                   	pop    ebp
    80f1:	c3                   	ret    
    80f2:	00 00                	add    BYTE PTR [eax],al
    80f4:	14 00                	adc    al,0x0
    80f6:	00 00                	add    BYTE PTR [eax],al
    80f8:	00 00                	add    BYTE PTR [eax],al
    80fa:	00 00                	add    BYTE PTR [eax],al
    80fc:	01 7a 52             	add    DWORD PTR [edx+0x52],edi
    80ff:	00 01                	add    BYTE PTR [ecx],al
    8101:	7c 08                	jl     0x810b
    8103:	01 1b                	add    DWORD PTR [ebx],ebx
    8105:	0c 04                	or     al,0x4
    8107:	04 88                	add    al,0x88
    8109:	01 00                	add    DWORD PTR [eax],eax
    810b:	00 1c 00             	add    BYTE PTR [eax+eax*1],bl
    810e:	00 00                	add    BYTE PTR [eax],al
    8110:	1c 00                	sbb    al,0x0
    8112:	00 00                	add    BYTE PTR [eax],al
    8114:	09 fe                	or     esi,edi
    8116:	ff                   	(bad)  
    8117:	ff                   	(bad)  
    8118:	7f 00                	jg     0x811a
    811a:	00 00                	add    BYTE PTR [eax],al
    811c:	00 41 0e             	add    BYTE PTR [ecx+0xe],al
    811f:	08 85 02 42 0d 05    	or     BYTE PTR [ebp+0x50d4202],al
    8125:	46                   	inc    esi
    8126:	87 03                	xchg   DWORD PTR [ebx],eax
    8128:	86 04 83             	xchg   BYTE PTR [ebx+eax*4],al
    812b:	05 14 00 00 00       	add    eax,0x14
    8130:	00 00                	add    BYTE PTR [eax],al
    8132:	00 00                	add    BYTE PTR [eax],al
    8134:	01 7a 52             	add    DWORD PTR [edx+0x52],edi
    8137:	00 01                	add    BYTE PTR [ecx],al
    8139:	7c 08                	jl     0x8143
    813b:	01 1b                	add    DWORD PTR [ebx],ebx
    813d:	0c 04                	or     al,0x4
    813f:	04 88                	add    al,0x88
    8141:	01 00                	add    DWORD PTR [eax],eax
    8143:	00 28                	add    BYTE PTR [eax],ch
    8145:	00 00                	add    BYTE PTR [eax],al
    8147:	00 1c 00             	add    BYTE PTR [eax+eax*1],bl
    814a:	00 00                	add    BYTE PTR [eax],al
    814c:	8c fe                	mov    esi,?
    814e:	ff                   	(bad)  
    814f:	ff 75 00             	push   DWORD PTR [ebp+0x0]
    8152:	00 00                	add    BYTE PTR [eax],al
    8154:	00 41 0e             	add    BYTE PTR [ecx+0xe],al
    8157:	08 85 02 42 0d 05    	or     BYTE PTR [ebp+0x50d4202],al
    815d:	46                   	inc    esi
    815e:	87 03                	xchg   DWORD PTR [ebx],eax
    8160:	86 04 83             	xchg   BYTE PTR [ebx+eax*4],al
    8163:	05 02 68 c3 41       	add    eax,0x41c36802
    8168:	c6 41 c7 41          	mov    BYTE PTR [ecx-0x39],0x41
    816c:	c5 0c 04             	lds    ecx,FWORD PTR [esp+eax*1]
    816f:	04 1c                	add    al,0x1c
    8171:	00 00                	add    BYTE PTR [eax],al
    8173:	00 48 00             	add    BYTE PTR [eax+0x0],cl
    8176:	00 00                	add    BYTE PTR [eax],al
    8178:	d5 fe                	aad    0xfe
    817a:	ff                   	(bad)  
    817b:	ff 22                	jmp    DWORD PTR [edx]
    817d:	00 00                	add    BYTE PTR [eax],al
    817f:	00 00                	add    BYTE PTR [eax],al
    8181:	41                   	inc    ecx
    8182:	0e                   	push   cs
    8183:	08 85 02 42 0d 05    	or     BYTE PTR [ebp+0x50d4202],al
    8189:	5e                   	pop    esi
    818a:	c5 0c 04             	lds    ecx,FWORD PTR [esp+eax*1]
    818d:	04 00                	add    al,0x0
    818f:	00 1c 00             	add    BYTE PTR [eax+eax*1],bl
    8192:	00 00                	add    BYTE PTR [eax],al
    8194:	68 00 00 00 d7       	push   0xd7000000
    8199:	fe                   	(bad)  
    819a:	ff                   	(bad)  
    819b:	ff 2c 00             	jmp    FWORD PTR [eax+eax*1]
    819e:	00 00                	add    BYTE PTR [eax],al
    81a0:	00 41 0e             	add    BYTE PTR [ecx+0xe],al
    81a3:	08 85 02 42 0d 05    	or     BYTE PTR [ebp+0x50d4202],al
    81a9:	68 c5 0c 04 04       	push   0x4040cc5
    81ae:	00 00                	add    BYTE PTR [eax],al
    81b0:	1c 00                	sbb    al,0x0
    81b2:	00 00                	add    BYTE PTR [eax],al
    81b4:	88 00                	mov    BYTE PTR [eax],al
    81b6:	00 00                	add    BYTE PTR [eax],al
    81b8:	e3 fe                	jecxz  0x81b8
    81ba:	ff                   	(bad)  
    81bb:	ff 09                	dec    DWORD PTR [ecx]
    81bd:	00 00                	add    BYTE PTR [eax],al
    81bf:	00 00                	add    BYTE PTR [eax],al
    81c1:	41                   	inc    ecx
    81c2:	0e                   	push   cs
    81c3:	08 85 02 42 0d 05    	or     BYTE PTR [ebp+0x50d4202],al
    81c9:	45                   	inc    ebp
    81ca:	c5 0c 04             	lds    ecx,FWORD PTR [esp+eax*1]
    81cd:	04 00                	add    al,0x0
    81cf:	00 1c 00             	add    BYTE PTR [eax+eax*1],bl
    81d2:	00 00                	add    BYTE PTR [eax],al
    81d4:	a8 00                	test   al,0x0
    81d6:	00 00                	add    BYTE PTR [eax],al
    81d8:	cc                   	int3   
    81d9:	fe                   	(bad)  
    81da:	ff                   	(bad)  
    81db:	ff 0d 00 00 00 00    	dec    DWORD PTR ds:0x0
    81e1:	41                   	inc    ecx
    81e2:	0e                   	push   cs
    81e3:	08 85 02 42 0d 05    	or     BYTE PTR [ebp+0x50d4202],al
    81e9:	49                   	dec    ecx
    81ea:	c5 0c 04             	lds    ecx,FWORD PTR [esp+eax*1]
    81ed:	04 00                	add    al,0x0
	...
    8217:	00 1c 82             	add    BYTE PTR [edx+eax*4],bl
    821a:	00 00                	add    BYTE PTR [eax],al
    821c:	48                   	dec    eax
    821d:	65 6c                	gs ins BYTE PTR es:[edi],dx
    821f:	6c                   	ins    BYTE PTR es:[edi],dx
    8220:	6f                   	outs   dx,DWORD PTR ds:[esi]
    8221:	2c 20                	sub    al,0x20
    8223:	77 6f                	ja     0x8294
    8225:	72 6c                	jb     0x8293
    8227:	64 00 00             	add    BYTE PTR fs:[eax],al
    822a:	00 00                	add    BYTE PTR [eax],al
    822c:	ff                   	(bad)  
    822d:	ff                   	(bad)  
    822e:	ff                   	(bad)  
    822f:	ff 00                	inc    DWORD PTR [eax]
    8231:	00 00                	add    BYTE PTR [eax],al
    8233:	00 ff                	add    bh,bh
    8235:	ff                   	(bad)  
    8236:	ff                   	(bad)  
    8237:	ff 00                	inc    DWORD PTR [eax]
    8239:	00 00                	add    BYTE PTR [eax],al
	...
